
rtarget:     file format elf64-x86-64


Disassembly of section .init:

0000000000400b98 <_init>:
  400b98:	48 83 ec 08          	sub    $0x8,%rsp
  400b9c:	e8 5b 02 00 00       	callq  400dfc <call_gmon_start>
  400ba1:	48 83 c4 08          	add    $0x8,%rsp
  400ba5:	c3                   	retq   

Disassembly of section .plt:

0000000000400bb0 <.plt>:
  400bb0:	ff 35 52 44 20 00    	pushq  0x204452(%rip)        # 605008 <_GLOBAL_OFFSET_TABLE_+0x8>
  400bb6:	ff 25 54 44 20 00    	jmpq   *0x204454(%rip)        # 605010 <_GLOBAL_OFFSET_TABLE_+0x10>
  400bbc:	0f 1f 40 00          	nopl   0x0(%rax)

0000000000400bc0 <strcasecmp@plt>:
  400bc0:	ff 25 52 44 20 00    	jmpq   *0x204452(%rip)        # 605018 <strcasecmp@GLIBC_2.2.5>
  400bc6:	68 00 00 00 00       	pushq  $0x0
  400bcb:	e9 e0 ff ff ff       	jmpq   400bb0 <.plt>

0000000000400bd0 <__errno_location@plt>:
  400bd0:	ff 25 4a 44 20 00    	jmpq   *0x20444a(%rip)        # 605020 <__errno_location@GLIBC_2.2.5>
  400bd6:	68 01 00 00 00       	pushq  $0x1
  400bdb:	e9 d0 ff ff ff       	jmpq   400bb0 <.plt>

0000000000400be0 <srandom@plt>:
  400be0:	ff 25 42 44 20 00    	jmpq   *0x204442(%rip)        # 605028 <srandom@GLIBC_2.2.5>
  400be6:	68 02 00 00 00       	pushq  $0x2
  400beb:	e9 c0 ff ff ff       	jmpq   400bb0 <.plt>

0000000000400bf0 <strncmp@plt>:
  400bf0:	ff 25 3a 44 20 00    	jmpq   *0x20443a(%rip)        # 605030 <strncmp@GLIBC_2.2.5>
  400bf6:	68 03 00 00 00       	pushq  $0x3
  400bfb:	e9 b0 ff ff ff       	jmpq   400bb0 <.plt>

0000000000400c00 <strcpy@plt>:
  400c00:	ff 25 32 44 20 00    	jmpq   *0x204432(%rip)        # 605038 <strcpy@GLIBC_2.2.5>
  400c06:	68 04 00 00 00       	pushq  $0x4
  400c0b:	e9 a0 ff ff ff       	jmpq   400bb0 <.plt>

0000000000400c10 <puts@plt>:
  400c10:	ff 25 2a 44 20 00    	jmpq   *0x20442a(%rip)        # 605040 <puts@GLIBC_2.2.5>
  400c16:	68 05 00 00 00       	pushq  $0x5
  400c1b:	e9 90 ff ff ff       	jmpq   400bb0 <.plt>

0000000000400c20 <write@plt>:
  400c20:	ff 25 22 44 20 00    	jmpq   *0x204422(%rip)        # 605048 <write@GLIBC_2.2.5>
  400c26:	68 06 00 00 00       	pushq  $0x6
  400c2b:	e9 80 ff ff ff       	jmpq   400bb0 <.plt>

0000000000400c30 <mmap@plt>:
  400c30:	ff 25 1a 44 20 00    	jmpq   *0x20441a(%rip)        # 605050 <mmap@GLIBC_2.2.5>
  400c36:	68 07 00 00 00       	pushq  $0x7
  400c3b:	e9 70 ff ff ff       	jmpq   400bb0 <.plt>

0000000000400c40 <printf@plt>:
  400c40:	ff 25 12 44 20 00    	jmpq   *0x204412(%rip)        # 605058 <printf@GLIBC_2.2.5>
  400c46:	68 08 00 00 00       	pushq  $0x8
  400c4b:	e9 60 ff ff ff       	jmpq   400bb0 <.plt>

0000000000400c50 <memset@plt>:
  400c50:	ff 25 0a 44 20 00    	jmpq   *0x20440a(%rip)        # 605060 <memset@GLIBC_2.2.5>
  400c56:	68 09 00 00 00       	pushq  $0x9
  400c5b:	e9 50 ff ff ff       	jmpq   400bb0 <.plt>

0000000000400c60 <alarm@plt>:
  400c60:	ff 25 02 44 20 00    	jmpq   *0x204402(%rip)        # 605068 <alarm@GLIBC_2.2.5>
  400c66:	68 0a 00 00 00       	pushq  $0xa
  400c6b:	e9 40 ff ff ff       	jmpq   400bb0 <.plt>

0000000000400c70 <close@plt>:
  400c70:	ff 25 fa 43 20 00    	jmpq   *0x2043fa(%rip)        # 605070 <close@GLIBC_2.2.5>
  400c76:	68 0b 00 00 00       	pushq  $0xb
  400c7b:	e9 30 ff ff ff       	jmpq   400bb0 <.plt>

0000000000400c80 <read@plt>:
  400c80:	ff 25 f2 43 20 00    	jmpq   *0x2043f2(%rip)        # 605078 <read@GLIBC_2.2.5>
  400c86:	68 0c 00 00 00       	pushq  $0xc
  400c8b:	e9 20 ff ff ff       	jmpq   400bb0 <.plt>

0000000000400c90 <__libc_start_main@plt>:
  400c90:	ff 25 ea 43 20 00    	jmpq   *0x2043ea(%rip)        # 605080 <__libc_start_main@GLIBC_2.2.5>
  400c96:	68 0d 00 00 00       	pushq  $0xd
  400c9b:	e9 10 ff ff ff       	jmpq   400bb0 <.plt>

0000000000400ca0 <memcpy@plt>:
  400ca0:	ff 25 e2 43 20 00    	jmpq   *0x2043e2(%rip)        # 605088 <memcpy@GLIBC_2.2.5>
  400ca6:	68 0e 00 00 00       	pushq  $0xe
  400cab:	e9 00 ff ff ff       	jmpq   400bb0 <.plt>

0000000000400cb0 <signal@plt>:
  400cb0:	ff 25 da 43 20 00    	jmpq   *0x2043da(%rip)        # 605090 <signal@GLIBC_2.2.5>
  400cb6:	68 0f 00 00 00       	pushq  $0xf
  400cbb:	e9 f0 fe ff ff       	jmpq   400bb0 <.plt>

0000000000400cc0 <gethostbyname@plt>:
  400cc0:	ff 25 d2 43 20 00    	jmpq   *0x2043d2(%rip)        # 605098 <gethostbyname@GLIBC_2.2.5>
  400cc6:	68 10 00 00 00       	pushq  $0x10
  400ccb:	e9 e0 fe ff ff       	jmpq   400bb0 <.plt>

0000000000400cd0 <fprintf@plt>:
  400cd0:	ff 25 ca 43 20 00    	jmpq   *0x2043ca(%rip)        # 6050a0 <fprintf@GLIBC_2.2.5>
  400cd6:	68 11 00 00 00       	pushq  $0x11
  400cdb:	e9 d0 fe ff ff       	jmpq   400bb0 <.plt>

0000000000400ce0 <strtol@plt>:
  400ce0:	ff 25 c2 43 20 00    	jmpq   *0x2043c2(%rip)        # 6050a8 <strtol@GLIBC_2.2.5>
  400ce6:	68 12 00 00 00       	pushq  $0x12
  400ceb:	e9 c0 fe ff ff       	jmpq   400bb0 <.plt>

0000000000400cf0 <time@plt>:
  400cf0:	ff 25 ba 43 20 00    	jmpq   *0x2043ba(%rip)        # 6050b0 <time@GLIBC_2.2.5>
  400cf6:	68 13 00 00 00       	pushq  $0x13
  400cfb:	e9 b0 fe ff ff       	jmpq   400bb0 <.plt>

0000000000400d00 <random@plt>:
  400d00:	ff 25 b2 43 20 00    	jmpq   *0x2043b2(%rip)        # 6050b8 <random@GLIBC_2.2.5>
  400d06:	68 14 00 00 00       	pushq  $0x14
  400d0b:	e9 a0 fe ff ff       	jmpq   400bb0 <.plt>

0000000000400d10 <_IO_getc@plt>:
  400d10:	ff 25 aa 43 20 00    	jmpq   *0x2043aa(%rip)        # 6050c0 <_IO_getc@GLIBC_2.2.5>
  400d16:	68 15 00 00 00       	pushq  $0x15
  400d1b:	e9 90 fe ff ff       	jmpq   400bb0 <.plt>

0000000000400d20 <__isoc99_sscanf@plt>:
  400d20:	ff 25 a2 43 20 00    	jmpq   *0x2043a2(%rip)        # 6050c8 <__isoc99_sscanf@GLIBC_2.7>
  400d26:	68 16 00 00 00       	pushq  $0x16
  400d2b:	e9 80 fe ff ff       	jmpq   400bb0 <.plt>

0000000000400d30 <munmap@plt>:
  400d30:	ff 25 9a 43 20 00    	jmpq   *0x20439a(%rip)        # 6050d0 <munmap@GLIBC_2.2.5>
  400d36:	68 17 00 00 00       	pushq  $0x17
  400d3b:	e9 70 fe ff ff       	jmpq   400bb0 <.plt>

0000000000400d40 <memmove@plt>:
  400d40:	ff 25 92 43 20 00    	jmpq   *0x204392(%rip)        # 6050d8 <memmove@GLIBC_2.2.5>
  400d46:	68 18 00 00 00       	pushq  $0x18
  400d4b:	e9 60 fe ff ff       	jmpq   400bb0 <.plt>

0000000000400d50 <fopen@plt>:
  400d50:	ff 25 8a 43 20 00    	jmpq   *0x20438a(%rip)        # 6050e0 <fopen@GLIBC_2.2.5>
  400d56:	68 19 00 00 00       	pushq  $0x19
  400d5b:	e9 50 fe ff ff       	jmpq   400bb0 <.plt>

0000000000400d60 <getopt@plt>:
  400d60:	ff 25 82 43 20 00    	jmpq   *0x204382(%rip)        # 6050e8 <getopt@GLIBC_2.2.5>
  400d66:	68 1a 00 00 00       	pushq  $0x1a
  400d6b:	e9 40 fe ff ff       	jmpq   400bb0 <.plt>

0000000000400d70 <strtoul@plt>:
  400d70:	ff 25 7a 43 20 00    	jmpq   *0x20437a(%rip)        # 6050f0 <strtoul@GLIBC_2.2.5>
  400d76:	68 1b 00 00 00       	pushq  $0x1b
  400d7b:	e9 30 fe ff ff       	jmpq   400bb0 <.plt>

0000000000400d80 <gethostname@plt>:
  400d80:	ff 25 72 43 20 00    	jmpq   *0x204372(%rip)        # 6050f8 <gethostname@GLIBC_2.2.5>
  400d86:	68 1c 00 00 00       	pushq  $0x1c
  400d8b:	e9 20 fe ff ff       	jmpq   400bb0 <.plt>

0000000000400d90 <sprintf@plt>:
  400d90:	ff 25 6a 43 20 00    	jmpq   *0x20436a(%rip)        # 605100 <sprintf@GLIBC_2.2.5>
  400d96:	68 1d 00 00 00       	pushq  $0x1d
  400d9b:	e9 10 fe ff ff       	jmpq   400bb0 <.plt>

0000000000400da0 <exit@plt>:
  400da0:	ff 25 62 43 20 00    	jmpq   *0x204362(%rip)        # 605108 <exit@GLIBC_2.2.5>
  400da6:	68 1e 00 00 00       	pushq  $0x1e
  400dab:	e9 00 fe ff ff       	jmpq   400bb0 <.plt>

0000000000400db0 <connect@plt>:
  400db0:	ff 25 5a 43 20 00    	jmpq   *0x20435a(%rip)        # 605110 <connect@GLIBC_2.2.5>
  400db6:	68 1f 00 00 00       	pushq  $0x1f
  400dbb:	e9 f0 fd ff ff       	jmpq   400bb0 <.plt>

0000000000400dc0 <socket@plt>:
  400dc0:	ff 25 52 43 20 00    	jmpq   *0x204352(%rip)        # 605118 <socket@GLIBC_2.2.5>
  400dc6:	68 20 00 00 00       	pushq  $0x20
  400dcb:	e9 e0 fd ff ff       	jmpq   400bb0 <.plt>

Disassembly of section .text:

0000000000400dd0 <_start>:
  400dd0:	31 ed                	xor    %ebp,%ebp
  400dd2:	49 89 d1             	mov    %rdx,%r9
  400dd5:	5e                   	pop    %rsi
  400dd6:	48 89 e2             	mov    %rsp,%rdx
  400dd9:	48 83 e4 f0          	and    $0xfffffffffffffff0,%rsp
  400ddd:	50                   	push   %rax
  400dde:	54                   	push   %rsp
  400ddf:	49 c7 c0 90 2b 40 00 	mov    $0x402b90,%r8
  400de6:	48 c7 c1 a0 2b 40 00 	mov    $0x402ba0,%rcx
  400ded:	48 c7 c7 60 10 40 00 	mov    $0x401060,%rdi
  400df4:	e8 97 fe ff ff       	callq  400c90 <__libc_start_main@plt>
  400df9:	f4                   	hlt    
  400dfa:	90                   	nop
  400dfb:	90                   	nop

0000000000400dfc <call_gmon_start>:
  400dfc:	48 83 ec 08          	sub    $0x8,%rsp
  400e00:	48 8b 05 f1 41 20 00 	mov    0x2041f1(%rip),%rax        # 604ff8 <__gmon_start__>
  400e07:	48 85 c0             	test   %rax,%rax
  400e0a:	74 02                	je     400e0e <call_gmon_start+0x12>
  400e0c:	ff d0                	callq  *%rax
  400e0e:	48 83 c4 08          	add    $0x8,%rsp
  400e12:	c3                   	retq   
  400e13:	66 2e 0f 1f 84 00 00 	nopw   %cs:0x0(%rax,%rax,1)
  400e1a:	00 00 00 
  400e1d:	0f 1f 00             	nopl   (%rax)

0000000000400e20 <deregister_tm_clones>:
  400e20:	b8 90 54 60 00       	mov    $0x605490,%eax
  400e25:	48 3d 90 54 60 00    	cmp    $0x605490,%rax
  400e2b:	74 13                	je     400e40 <deregister_tm_clones+0x20>
  400e2d:	b8 00 00 00 00       	mov    $0x0,%eax
  400e32:	48 85 c0             	test   %rax,%rax
  400e35:	74 09                	je     400e40 <deregister_tm_clones+0x20>
  400e37:	bf 90 54 60 00       	mov    $0x605490,%edi
  400e3c:	ff e0                	jmpq   *%rax
  400e3e:	66 90                	xchg   %ax,%ax
  400e40:	c3                   	retq   
  400e41:	0f 1f 44 00 00       	nopl   0x0(%rax,%rax,1)
  400e46:	66 2e 0f 1f 84 00 00 	nopw   %cs:0x0(%rax,%rax,1)
  400e4d:	00 00 00 

0000000000400e50 <register_tm_clones>:
  400e50:	be 90 54 60 00       	mov    $0x605490,%esi
  400e55:	48 81 ee 90 54 60 00 	sub    $0x605490,%rsi
  400e5c:	48 c1 fe 03          	sar    $0x3,%rsi
  400e60:	48 89 f0             	mov    %rsi,%rax
  400e63:	48 c1 e8 3f          	shr    $0x3f,%rax
  400e67:	48 01 c6             	add    %rax,%rsi
  400e6a:	48 d1 fe             	sar    %rsi
  400e6d:	74 11                	je     400e80 <register_tm_clones+0x30>
  400e6f:	b8 00 00 00 00       	mov    $0x0,%eax
  400e74:	48 85 c0             	test   %rax,%rax
  400e77:	74 07                	je     400e80 <register_tm_clones+0x30>
  400e79:	bf 90 54 60 00       	mov    $0x605490,%edi
  400e7e:	ff e0                	jmpq   *%rax
  400e80:	c3                   	retq   
  400e81:	0f 1f 44 00 00       	nopl   0x0(%rax,%rax,1)
  400e86:	66 2e 0f 1f 84 00 00 	nopw   %cs:0x0(%rax,%rax,1)
  400e8d:	00 00 00 

0000000000400e90 <__do_global_dtors_aux>:
  400e90:	80 3d 39 46 20 00 00 	cmpb   $0x0,0x204639(%rip)        # 6054d0 <completed.7182>
  400e97:	75 17                	jne    400eb0 <__do_global_dtors_aux+0x20>
  400e99:	55                   	push   %rbp
  400e9a:	48 89 e5             	mov    %rsp,%rbp
  400e9d:	e8 7e ff ff ff       	callq  400e20 <deregister_tm_clones>
  400ea2:	c6 05 27 46 20 00 01 	movb   $0x1,0x204627(%rip)        # 6054d0 <completed.7182>
  400ea9:	5d                   	pop    %rbp
  400eaa:	c3                   	retq   
  400eab:	0f 1f 44 00 00       	nopl   0x0(%rax,%rax,1)
  400eb0:	c3                   	retq   
  400eb1:	0f 1f 44 00 00       	nopl   0x0(%rax,%rax,1)
  400eb6:	66 2e 0f 1f 84 00 00 	nopw   %cs:0x0(%rax,%rax,1)
  400ebd:	00 00 00 

0000000000400ec0 <frame_dummy>:
  400ec0:	eb 8e                	jmp    400e50 <register_tm_clones>

0000000000400ec2 <usage>:
  400ec2:	48 83 ec 08          	sub    $0x8,%rsp
  400ec6:	48 89 fe             	mov    %rdi,%rsi
  400ec9:	83 3d 38 46 20 00 00 	cmpl   $0x0,0x204638(%rip)        # 605508 <is_checker>
  400ed0:	74 41                	je     400f13 <usage+0x51>
  400ed2:	bf 50 2c 40 00       	mov    $0x402c50,%edi
  400ed7:	b8 00 00 00 00       	mov    $0x0,%eax
  400edc:	e8 5f fd ff ff       	callq  400c40 <printf@plt>
  400ee1:	bf 88 2c 40 00       	mov    $0x402c88,%edi
  400ee6:	e8 25 fd ff ff       	callq  400c10 <puts@plt>
  400eeb:	bf c0 2d 40 00       	mov    $0x402dc0,%edi
  400ef0:	e8 1b fd ff ff       	callq  400c10 <puts@plt>
  400ef5:	bf b0 2c 40 00       	mov    $0x402cb0,%edi
  400efa:	e8 11 fd ff ff       	callq  400c10 <puts@plt>
  400eff:	bf da 2d 40 00       	mov    $0x402dda,%edi
  400f04:	e8 07 fd ff ff       	callq  400c10 <puts@plt>
  400f09:	bf 00 00 00 00       	mov    $0x0,%edi
  400f0e:	e8 8d fe ff ff       	callq  400da0 <exit@plt>
  400f13:	bf f6 2d 40 00       	mov    $0x402df6,%edi
  400f18:	b8 00 00 00 00       	mov    $0x0,%eax
  400f1d:	e8 1e fd ff ff       	callq  400c40 <printf@plt>
  400f22:	bf d8 2c 40 00       	mov    $0x402cd8,%edi
  400f27:	e8 e4 fc ff ff       	callq  400c10 <puts@plt>
  400f2c:	bf 00 2d 40 00       	mov    $0x402d00,%edi
  400f31:	e8 da fc ff ff       	callq  400c10 <puts@plt>
  400f36:	bf 14 2e 40 00       	mov    $0x402e14,%edi
  400f3b:	e8 d0 fc ff ff       	callq  400c10 <puts@plt>
  400f40:	eb c7                	jmp    400f09 <usage+0x47>

0000000000400f42 <initialize_target>:
  400f42:	55                   	push   %rbp
  400f43:	53                   	push   %rbx
  400f44:	48 81 ec 08 21 00 00 	sub    $0x2108,%rsp
  400f4b:	89 f5                	mov    %esi,%ebp
  400f4d:	89 3d a5 45 20 00    	mov    %edi,0x2045a5(%rip)        # 6054f8 <check_level>
  400f53:	8b 3d ef 41 20 00    	mov    0x2041ef(%rip),%edi        # 605148 <target_id>
  400f59:	e8 09 1c 00 00       	callq  402b67 <gencookie>
  400f5e:	89 05 a0 45 20 00    	mov    %eax,0x2045a0(%rip)        # 605504 <cookie>
  400f64:	89 c7                	mov    %eax,%edi
  400f66:	e8 fc 1b 00 00       	callq  402b67 <gencookie>
  400f6b:	89 05 8f 45 20 00    	mov    %eax,0x20458f(%rip)        # 605500 <authkey>
  400f71:	8b 05 d1 41 20 00    	mov    0x2041d1(%rip),%eax        # 605148 <target_id>
  400f77:	8d 78 01             	lea    0x1(%rax),%edi
  400f7a:	e8 61 fc ff ff       	callq  400be0 <srandom@plt>
  400f7f:	e8 7c fd ff ff       	callq  400d00 <random@plt>
  400f84:	89 c7                	mov    %eax,%edi
  400f86:	e8 8d 02 00 00       	callq  401218 <scramble>
  400f8b:	89 c3                	mov    %eax,%ebx
  400f8d:	85 ed                	test   %ebp,%ebp
  400f8f:	75 3d                	jne    400fce <initialize_target+0x8c>
  400f91:	b8 00 00 00 00       	mov    $0x0,%eax
  400f96:	01 d8                	add    %ebx,%eax
  400f98:	0f b7 c0             	movzwl %ax,%eax
  400f9b:	8d 04 c5 00 01 00 00 	lea    0x100(,%rax,8),%eax
  400fa2:	89 c0                	mov    %eax,%eax
  400fa4:	48 89 05 d5 44 20 00 	mov    %rax,0x2044d5(%rip)        # 605480 <buf_offset>
  400fab:	c6 05 76 51 20 00 72 	movb   $0x72,0x205176(%rip)        # 606128 <target_prefix>
  400fb2:	83 3d cf 44 20 00 00 	cmpl   $0x0,0x2044cf(%rip)        # 605488 <notify>
  400fb9:	74 09                	je     400fc4 <initialize_target+0x82>
  400fbb:	83 3d 46 45 20 00 00 	cmpl   $0x0,0x204546(%rip)        # 605508 <is_checker>
  400fc2:	74 22                	je     400fe6 <initialize_target+0xa4>
  400fc4:	48 81 c4 08 21 00 00 	add    $0x2108,%rsp
  400fcb:	5b                   	pop    %rbx
  400fcc:	5d                   	pop    %rbp
  400fcd:	c3                   	retq   
  400fce:	bf 00 00 00 00       	mov    $0x0,%edi
  400fd3:	e8 18 fd ff ff       	callq  400cf0 <time@plt>
  400fd8:	89 c7                	mov    %eax,%edi
  400fda:	e8 01 fc ff ff       	callq  400be0 <srandom@plt>
  400fdf:	e8 1c fd ff ff       	callq  400d00 <random@plt>
  400fe4:	eb b0                	jmp    400f96 <initialize_target+0x54>
  400fe6:	be 00 01 00 00       	mov    $0x100,%esi
  400feb:	48 89 e7             	mov    %rsp,%rdi
  400fee:	e8 8d fd ff ff       	callq  400d80 <gethostname@plt>
  400ff3:	89 c3                	mov    %eax,%ebx
  400ff5:	85 c0                	test   %eax,%eax
  400ff7:	75 21                	jne    40101a <initialize_target+0xd8>
  400ff9:	48 63 c3             	movslq %ebx,%rax
  400ffc:	48 8b 3c c5 60 51 60 	mov    0x605160(,%rax,8),%rdi
  401003:	00 
  401004:	48 85 ff             	test   %rdi,%rdi
  401007:	74 25                	je     40102e <initialize_target+0xec>
  401009:	48 89 e6             	mov    %rsp,%rsi
  40100c:	e8 af fb ff ff       	callq  400bc0 <strcasecmp@plt>
  401011:	85 c0                	test   %eax,%eax
  401013:	74 19                	je     40102e <initialize_target+0xec>
  401015:	83 c3 01             	add    $0x1,%ebx
  401018:	eb df                	jmp    400ff9 <initialize_target+0xb7>
  40101a:	bf 30 2d 40 00       	mov    $0x402d30,%edi
  40101f:	e8 ec fb ff ff       	callq  400c10 <puts@plt>
  401024:	bf 08 00 00 00       	mov    $0x8,%edi
  401029:	e8 72 fd ff ff       	callq  400da0 <exit@plt>
  40102e:	48 8d bc 24 00 01 00 	lea    0x100(%rsp),%rdi
  401035:	00 
  401036:	e8 b6 18 00 00       	callq  4028f1 <init_driver>
  40103b:	85 c0                	test   %eax,%eax
  40103d:	79 85                	jns    400fc4 <initialize_target+0x82>
  40103f:	48 8d b4 24 00 01 00 	lea    0x100(%rsp),%rsi
  401046:	00 
  401047:	bf 68 2d 40 00       	mov    $0x402d68,%edi
  40104c:	b8 00 00 00 00       	mov    $0x0,%eax
  401051:	e8 ea fb ff ff       	callq  400c40 <printf@plt>
  401056:	bf 08 00 00 00       	mov    $0x8,%edi
  40105b:	e8 40 fd ff ff       	callq  400da0 <exit@plt>

0000000000401060 <main>:
  401060:	41 56                	push   %r14
  401062:	41 55                	push   %r13
  401064:	41 54                	push   %r12
  401066:	55                   	push   %rbp
  401067:	53                   	push   %rbx
  401068:	89 fd                	mov    %edi,%ebp
  40106a:	48 89 f3             	mov    %rsi,%rbx
  40106d:	be d2 1c 40 00       	mov    $0x401cd2,%esi
  401072:	bf 0b 00 00 00       	mov    $0xb,%edi
  401077:	e8 34 fc ff ff       	callq  400cb0 <signal@plt>
  40107c:	be 84 1c 40 00       	mov    $0x401c84,%esi
  401081:	bf 07 00 00 00       	mov    $0x7,%edi
  401086:	e8 25 fc ff ff       	callq  400cb0 <signal@plt>
  40108b:	be 20 1d 40 00       	mov    $0x401d20,%esi
  401090:	bf 04 00 00 00       	mov    $0x4,%edi
  401095:	e8 16 fc ff ff       	callq  400cb0 <signal@plt>
  40109a:	83 3d 67 44 20 00 00 	cmpl   $0x0,0x204467(%rip)        # 605508 <is_checker>
  4010a1:	75 25                	jne    4010c8 <main+0x68>
  4010a3:	41 bc 35 2e 40 00    	mov    $0x402e35,%r12d
  4010a9:	48 8b 05 f0 43 20 00 	mov    0x2043f0(%rip),%rax        # 6054a0 <stdin@@GLIBC_2.2.5>
  4010b0:	48 89 05 39 44 20 00 	mov    %rax,0x204439(%rip)        # 6054f0 <infile>
  4010b7:	41 bd 00 00 00 00    	mov    $0x0,%r13d
  4010bd:	41 be 00 00 00 00    	mov    $0x0,%r14d
  4010c3:	e9 81 00 00 00       	jmpq   401149 <main+0xe9>
  4010c8:	be 6e 1d 40 00       	mov    $0x401d6e,%esi
  4010cd:	bf 0e 00 00 00       	mov    $0xe,%edi
  4010d2:	e8 d9 fb ff ff       	callq  400cb0 <signal@plt>
  4010d7:	bf 05 00 00 00       	mov    $0x5,%edi
  4010dc:	e8 7f fb ff ff       	callq  400c60 <alarm@plt>
  4010e1:	41 bc 2d 2e 40 00    	mov    $0x402e2d,%r12d
  4010e7:	eb c0                	jmp    4010a9 <main+0x49>
  4010e9:	48 8b 3b             	mov    (%rbx),%rdi
  4010ec:	e8 d1 fd ff ff       	callq  400ec2 <usage>
  4010f1:	be d5 30 40 00       	mov    $0x4030d5,%esi
  4010f6:	48 8b 3d c3 43 20 00 	mov    0x2043c3(%rip),%rdi        # 6054c0 <optarg@@GLIBC_2.2.5>
  4010fd:	e8 4e fc ff ff       	callq  400d50 <fopen@plt>
  401102:	48 89 05 e7 43 20 00 	mov    %rax,0x2043e7(%rip)        # 6054f0 <infile>
  401109:	48 85 c0             	test   %rax,%rax
  40110c:	75 3b                	jne    401149 <main+0xe9>
  40110e:	48 8b 15 ab 43 20 00 	mov    0x2043ab(%rip),%rdx        # 6054c0 <optarg@@GLIBC_2.2.5>
  401115:	be 3a 2e 40 00       	mov    $0x402e3a,%esi
  40111a:	48 8b 3d a7 43 20 00 	mov    0x2043a7(%rip),%rdi        # 6054c8 <stderr@@GLIBC_2.2.5>
  401121:	e8 aa fb ff ff       	callq  400cd0 <fprintf@plt>
  401126:	b8 01 00 00 00       	mov    $0x1,%eax
  40112b:	e9 c1 00 00 00       	jmpq   4011f1 <main+0x191>
  401130:	ba 10 00 00 00       	mov    $0x10,%edx
  401135:	be 00 00 00 00       	mov    $0x0,%esi
  40113a:	48 8b 3d 7f 43 20 00 	mov    0x20437f(%rip),%rdi        # 6054c0 <optarg@@GLIBC_2.2.5>
  401141:	e8 2a fc ff ff       	callq  400d70 <strtoul@plt>
  401146:	41 89 c6             	mov    %eax,%r14d
  401149:	4c 89 e2             	mov    %r12,%rdx
  40114c:	48 89 de             	mov    %rbx,%rsi
  40114f:	89 ef                	mov    %ebp,%edi
  401151:	e8 0a fc ff ff       	callq  400d60 <getopt@plt>
  401156:	3c ff                	cmp    $0xff,%al
  401158:	74 52                	je     4011ac <main+0x14c>
  40115a:	0f be f0             	movsbl %al,%esi
  40115d:	83 e8 61             	sub    $0x61,%eax
  401160:	3c 10                	cmp    $0x10,%al
  401162:	77 31                	ja     401195 <main+0x135>
  401164:	0f b6 c0             	movzbl %al,%eax
  401167:	ff 24 c5 78 2e 40 00 	jmpq   *0x402e78(,%rax,8)
  40116e:	ba 0a 00 00 00       	mov    $0xa,%edx
  401173:	be 00 00 00 00       	mov    $0x0,%esi
  401178:	48 8b 3d 41 43 20 00 	mov    0x204341(%rip),%rdi        # 6054c0 <optarg@@GLIBC_2.2.5>
  40117f:	e8 5c fb ff ff       	callq  400ce0 <strtol@plt>
  401184:	41 89 c5             	mov    %eax,%r13d
  401187:	eb c0                	jmp    401149 <main+0xe9>
  401189:	c7 05 f5 42 20 00 00 	movl   $0x0,0x2042f5(%rip)        # 605488 <notify>
  401190:	00 00 00 
  401193:	eb b4                	jmp    401149 <main+0xe9>
  401195:	bf 57 2e 40 00       	mov    $0x402e57,%edi
  40119a:	b8 00 00 00 00       	mov    $0x0,%eax
  40119f:	e8 9c fa ff ff       	callq  400c40 <printf@plt>
  4011a4:	48 8b 3b             	mov    (%rbx),%rdi
  4011a7:	e8 16 fd ff ff       	callq  400ec2 <usage>
  4011ac:	be 01 00 00 00       	mov    $0x1,%esi
  4011b1:	44 89 ef             	mov    %r13d,%edi
  4011b4:	e8 89 fd ff ff       	callq  400f42 <initialize_target>
  4011b9:	83 3d 48 43 20 00 00 	cmpl   $0x0,0x204348(%rip)        # 605508 <is_checker>
  4011c0:	74 09                	je     4011cb <main+0x16b>
  4011c2:	44 39 35 37 43 20 00 	cmp    %r14d,0x204337(%rip)        # 605500 <authkey>
  4011c9:	75 2f                	jne    4011fa <main+0x19a>
  4011cb:	8b 35 33 43 20 00    	mov    0x204333(%rip),%esi        # 605504 <cookie>
  4011d1:	bf 6a 2e 40 00       	mov    $0x402e6a,%edi
  4011d6:	b8 00 00 00 00       	mov    $0x0,%eax
  4011db:	e8 60 fa ff ff       	callq  400c40 <printf@plt>
  4011e0:	48 8b 3d 99 42 20 00 	mov    0x204299(%rip),%rdi        # 605480 <buf_offset>
  4011e7:	e8 d0 0b 00 00       	callq  401dbc <launch>
  4011ec:	b8 00 00 00 00       	mov    $0x0,%eax
  4011f1:	5b                   	pop    %rbx
  4011f2:	5d                   	pop    %rbp
  4011f3:	41 5c                	pop    %r12
  4011f5:	41 5d                	pop    %r13
  4011f7:	41 5e                	pop    %r14
  4011f9:	c3                   	retq   
  4011fa:	44 89 f6             	mov    %r14d,%esi
  4011fd:	bf 90 2d 40 00       	mov    $0x402d90,%edi
  401202:	b8 00 00 00 00       	mov    $0x0,%eax
  401207:	e8 34 fa ff ff       	callq  400c40 <printf@plt>
  40120c:	b8 00 00 00 00       	mov    $0x0,%eax
  401211:	e8 72 07 00 00       	callq  401988 <check_fail>
  401216:	eb b3                	jmp    4011cb <main+0x16b>

0000000000401218 <scramble>:
  401218:	b8 00 00 00 00       	mov    $0x0,%eax
  40121d:	83 f8 09             	cmp    $0x9,%eax
  401220:	77 13                	ja     401235 <scramble+0x1d>
  401222:	69 d0 d4 64 00 00    	imul   $0x64d4,%eax,%edx
  401228:	01 fa                	add    %edi,%edx
  40122a:	89 c1                	mov    %eax,%ecx
  40122c:	89 54 8c d0          	mov    %edx,-0x30(%rsp,%rcx,4)
  401230:	83 c0 01             	add    $0x1,%eax
  401233:	eb e8                	jmp    40121d <scramble+0x5>
  401235:	8b 44 24 e0          	mov    -0x20(%rsp),%eax
  401239:	69 c0 9f ea 00 00    	imul   $0xea9f,%eax,%eax
  40123f:	89 44 24 e0          	mov    %eax,-0x20(%rsp)
  401243:	8b 44 24 f0          	mov    -0x10(%rsp),%eax
  401247:	69 c0 ad ed 00 00    	imul   $0xedad,%eax,%eax
  40124d:	89 44 24 f0          	mov    %eax,-0x10(%rsp)
  401251:	8b 44 24 e4          	mov    -0x1c(%rsp),%eax
  401255:	69 c0 b8 8c 00 00    	imul   $0x8cb8,%eax,%eax
  40125b:	89 44 24 e4          	mov    %eax,-0x1c(%rsp)
  40125f:	8b 44 24 d8          	mov    -0x28(%rsp),%eax
  401263:	69 c0 fc fd 00 00    	imul   $0xfdfc,%eax,%eax
  401269:	89 44 24 d8          	mov    %eax,-0x28(%rsp)
  40126d:	8b 44 24 e0          	mov    -0x20(%rsp),%eax
  401271:	69 c0 b0 46 00 00    	imul   $0x46b0,%eax,%eax
  401277:	89 44 24 e0          	mov    %eax,-0x20(%rsp)
  40127b:	8b 44 24 f0          	mov    -0x10(%rsp),%eax
  40127f:	69 c0 f3 e1 00 00    	imul   $0xe1f3,%eax,%eax
  401285:	89 44 24 f0          	mov    %eax,-0x10(%rsp)
  401289:	8b 44 24 f4          	mov    -0xc(%rsp),%eax
  40128d:	69 c0 bf 56 00 00    	imul   $0x56bf,%eax,%eax
  401293:	89 44 24 f4          	mov    %eax,-0xc(%rsp)
  401297:	8b 44 24 f0          	mov    -0x10(%rsp),%eax
  40129b:	69 c0 7b 5e 00 00    	imul   $0x5e7b,%eax,%eax
  4012a1:	89 44 24 f0          	mov    %eax,-0x10(%rsp)
  4012a5:	8b 44 24 d8          	mov    -0x28(%rsp),%eax
  4012a9:	69 c0 3e b2 00 00    	imul   $0xb23e,%eax,%eax
  4012af:	89 44 24 d8          	mov    %eax,-0x28(%rsp)
  4012b3:	8b 44 24 f4          	mov    -0xc(%rsp),%eax
  4012b7:	69 c0 2d b4 00 00    	imul   $0xb42d,%eax,%eax
  4012bd:	89 44 24 f4          	mov    %eax,-0xc(%rsp)
  4012c1:	8b 44 24 d8          	mov    -0x28(%rsp),%eax
  4012c5:	69 c0 70 7d 00 00    	imul   $0x7d70,%eax,%eax
  4012cb:	89 44 24 d8          	mov    %eax,-0x28(%rsp)
  4012cf:	8b 44 24 dc          	mov    -0x24(%rsp),%eax
  4012d3:	69 c0 aa f1 00 00    	imul   $0xf1aa,%eax,%eax
  4012d9:	89 44 24 dc          	mov    %eax,-0x24(%rsp)
  4012dd:	8b 44 24 f4          	mov    -0xc(%rsp),%eax
  4012e1:	69 c0 4f 7e 00 00    	imul   $0x7e4f,%eax,%eax
  4012e7:	89 44 24 f4          	mov    %eax,-0xc(%rsp)
  4012eb:	8b 44 24 ec          	mov    -0x14(%rsp),%eax
  4012ef:	69 c0 5d df 00 00    	imul   $0xdf5d,%eax,%eax
  4012f5:	89 44 24 ec          	mov    %eax,-0x14(%rsp)
  4012f9:	8b 44 24 e0          	mov    -0x20(%rsp),%eax
  4012fd:	69 c0 4d 4e 00 00    	imul   $0x4e4d,%eax,%eax
  401303:	89 44 24 e0          	mov    %eax,-0x20(%rsp)
  401307:	8b 44 24 d0          	mov    -0x30(%rsp),%eax
  40130b:	69 c0 f9 d3 00 00    	imul   $0xd3f9,%eax,%eax
  401311:	89 44 24 d0          	mov    %eax,-0x30(%rsp)
  401315:	8b 44 24 f4          	mov    -0xc(%rsp),%eax
  401319:	69 c0 8e ca 00 00    	imul   $0xca8e,%eax,%eax
  40131f:	89 44 24 f4          	mov    %eax,-0xc(%rsp)
  401323:	8b 44 24 f0          	mov    -0x10(%rsp),%eax
  401327:	69 c0 d1 ca 00 00    	imul   $0xcad1,%eax,%eax
  40132d:	89 44 24 f0          	mov    %eax,-0x10(%rsp)
  401331:	8b 44 24 f4          	mov    -0xc(%rsp),%eax
  401335:	69 c0 12 d1 00 00    	imul   $0xd112,%eax,%eax
  40133b:	89 44 24 f4          	mov    %eax,-0xc(%rsp)
  40133f:	8b 44 24 d4          	mov    -0x2c(%rsp),%eax
  401343:	69 c0 5f 87 00 00    	imul   $0x875f,%eax,%eax
  401349:	89 44 24 d4          	mov    %eax,-0x2c(%rsp)
  40134d:	8b 44 24 e0          	mov    -0x20(%rsp),%eax
  401351:	69 c0 59 dc 00 00    	imul   $0xdc59,%eax,%eax
  401357:	89 44 24 e0          	mov    %eax,-0x20(%rsp)
  40135b:	8b 44 24 e8          	mov    -0x18(%rsp),%eax
  40135f:	69 c0 e5 fb 00 00    	imul   $0xfbe5,%eax,%eax
  401365:	89 44 24 e8          	mov    %eax,-0x18(%rsp)
  401369:	8b 44 24 dc          	mov    -0x24(%rsp),%eax
  40136d:	69 c0 21 f4 00 00    	imul   $0xf421,%eax,%eax
  401373:	89 44 24 dc          	mov    %eax,-0x24(%rsp)
  401377:	8b 44 24 ec          	mov    -0x14(%rsp),%eax
  40137b:	69 c0 53 a2 00 00    	imul   $0xa253,%eax,%eax
  401381:	89 44 24 ec          	mov    %eax,-0x14(%rsp)
  401385:	8b 44 24 d8          	mov    -0x28(%rsp),%eax
  401389:	69 c0 f1 a3 00 00    	imul   $0xa3f1,%eax,%eax
  40138f:	89 44 24 d8          	mov    %eax,-0x28(%rsp)
  401393:	8b 44 24 dc          	mov    -0x24(%rsp),%eax
  401397:	69 c0 6f 09 00 00    	imul   $0x96f,%eax,%eax
  40139d:	89 44 24 dc          	mov    %eax,-0x24(%rsp)
  4013a1:	8b 44 24 dc          	mov    -0x24(%rsp),%eax
  4013a5:	69 c0 fa d6 00 00    	imul   $0xd6fa,%eax,%eax
  4013ab:	89 44 24 dc          	mov    %eax,-0x24(%rsp)
  4013af:	8b 44 24 d4          	mov    -0x2c(%rsp),%eax
  4013b3:	69 c0 c7 21 00 00    	imul   $0x21c7,%eax,%eax
  4013b9:	89 44 24 d4          	mov    %eax,-0x2c(%rsp)
  4013bd:	8b 44 24 f0          	mov    -0x10(%rsp),%eax
  4013c1:	69 c0 4f 52 00 00    	imul   $0x524f,%eax,%eax
  4013c7:	89 44 24 f0          	mov    %eax,-0x10(%rsp)
  4013cb:	8b 44 24 d0          	mov    -0x30(%rsp),%eax
  4013cf:	69 c0 6e c4 00 00    	imul   $0xc46e,%eax,%eax
  4013d5:	89 44 24 d0          	mov    %eax,-0x30(%rsp)
  4013d9:	8b 44 24 d8          	mov    -0x28(%rsp),%eax
  4013dd:	69 c0 a0 05 00 00    	imul   $0x5a0,%eax,%eax
  4013e3:	89 44 24 d8          	mov    %eax,-0x28(%rsp)
  4013e7:	8b 44 24 d8          	mov    -0x28(%rsp),%eax
  4013eb:	69 c0 89 d9 00 00    	imul   $0xd989,%eax,%eax
  4013f1:	89 44 24 d8          	mov    %eax,-0x28(%rsp)
  4013f5:	8b 44 24 e0          	mov    -0x20(%rsp),%eax
  4013f9:	69 c0 0f 5a 00 00    	imul   $0x5a0f,%eax,%eax
  4013ff:	89 44 24 e0          	mov    %eax,-0x20(%rsp)
  401403:	8b 44 24 ec          	mov    -0x14(%rsp),%eax
  401407:	69 c0 75 27 00 00    	imul   $0x2775,%eax,%eax
  40140d:	89 44 24 ec          	mov    %eax,-0x14(%rsp)
  401411:	8b 44 24 e0          	mov    -0x20(%rsp),%eax
  401415:	69 c0 27 6d 00 00    	imul   $0x6d27,%eax,%eax
  40141b:	89 44 24 e0          	mov    %eax,-0x20(%rsp)
  40141f:	8b 44 24 d4          	mov    -0x2c(%rsp),%eax
  401423:	69 c0 e4 42 00 00    	imul   $0x42e4,%eax,%eax
  401429:	89 44 24 d4          	mov    %eax,-0x2c(%rsp)
  40142d:	8b 44 24 d8          	mov    -0x28(%rsp),%eax
  401431:	69 c0 26 18 00 00    	imul   $0x1826,%eax,%eax
  401437:	89 44 24 d8          	mov    %eax,-0x28(%rsp)
  40143b:	8b 44 24 e4          	mov    -0x1c(%rsp),%eax
  40143f:	69 c0 99 7c 00 00    	imul   $0x7c99,%eax,%eax
  401445:	89 44 24 e4          	mov    %eax,-0x1c(%rsp)
  401449:	8b 44 24 e0          	mov    -0x20(%rsp),%eax
  40144d:	69 c0 2b 99 00 00    	imul   $0x992b,%eax,%eax
  401453:	89 44 24 e0          	mov    %eax,-0x20(%rsp)
  401457:	8b 44 24 e0          	mov    -0x20(%rsp),%eax
  40145b:	69 c0 a7 b2 00 00    	imul   $0xb2a7,%eax,%eax
  401461:	89 44 24 e0          	mov    %eax,-0x20(%rsp)
  401465:	8b 44 24 d8          	mov    -0x28(%rsp),%eax
  401469:	69 c0 6d 75 00 00    	imul   $0x756d,%eax,%eax
  40146f:	89 44 24 d8          	mov    %eax,-0x28(%rsp)
  401473:	8b 44 24 e4          	mov    -0x1c(%rsp),%eax
  401477:	69 c0 7d 5e 00 00    	imul   $0x5e7d,%eax,%eax
  40147d:	89 44 24 e4          	mov    %eax,-0x1c(%rsp)
  401481:	8b 44 24 e8          	mov    -0x18(%rsp),%eax
  401485:	69 c0 2f b7 00 00    	imul   $0xb72f,%eax,%eax
  40148b:	89 44 24 e8          	mov    %eax,-0x18(%rsp)
  40148f:	8b 44 24 d0          	mov    -0x30(%rsp),%eax
  401493:	69 c0 b1 a1 00 00    	imul   $0xa1b1,%eax,%eax
  401499:	89 44 24 d0          	mov    %eax,-0x30(%rsp)
  40149d:	8b 44 24 f4          	mov    -0xc(%rsp),%eax
  4014a1:	69 c0 68 81 00 00    	imul   $0x8168,%eax,%eax
  4014a7:	89 44 24 f4          	mov    %eax,-0xc(%rsp)
  4014ab:	8b 44 24 f0          	mov    -0x10(%rsp),%eax
  4014af:	69 c0 1b aa 00 00    	imul   $0xaa1b,%eax,%eax
  4014b5:	89 44 24 f0          	mov    %eax,-0x10(%rsp)
  4014b9:	8b 44 24 e8          	mov    -0x18(%rsp),%eax
  4014bd:	69 c0 87 fe 00 00    	imul   $0xfe87,%eax,%eax
  4014c3:	89 44 24 e8          	mov    %eax,-0x18(%rsp)
  4014c7:	8b 44 24 e8          	mov    -0x18(%rsp),%eax
  4014cb:	69 c0 37 57 00 00    	imul   $0x5737,%eax,%eax
  4014d1:	89 44 24 e8          	mov    %eax,-0x18(%rsp)
  4014d5:	8b 44 24 e0          	mov    -0x20(%rsp),%eax
  4014d9:	69 c0 fe 27 00 00    	imul   $0x27fe,%eax,%eax
  4014df:	89 44 24 e0          	mov    %eax,-0x20(%rsp)
  4014e3:	8b 44 24 ec          	mov    -0x14(%rsp),%eax
  4014e7:	69 c0 b8 83 00 00    	imul   $0x83b8,%eax,%eax
  4014ed:	89 44 24 ec          	mov    %eax,-0x14(%rsp)
  4014f1:	8b 44 24 e8          	mov    -0x18(%rsp),%eax
  4014f5:	69 c0 80 2d 00 00    	imul   $0x2d80,%eax,%eax
  4014fb:	89 44 24 e8          	mov    %eax,-0x18(%rsp)
  4014ff:	8b 44 24 d0          	mov    -0x30(%rsp),%eax
  401503:	69 c0 a6 de 00 00    	imul   $0xdea6,%eax,%eax
  401509:	89 44 24 d0          	mov    %eax,-0x30(%rsp)
  40150d:	8b 44 24 d0          	mov    -0x30(%rsp),%eax
  401511:	69 c0 66 05 00 00    	imul   $0x566,%eax,%eax
  401517:	89 44 24 d0          	mov    %eax,-0x30(%rsp)
  40151b:	8b 44 24 e4          	mov    -0x1c(%rsp),%eax
  40151f:	69 c0 ed 51 00 00    	imul   $0x51ed,%eax,%eax
  401525:	89 44 24 e4          	mov    %eax,-0x1c(%rsp)
  401529:	8b 44 24 d0          	mov    -0x30(%rsp),%eax
  40152d:	69 c0 2c 7a 00 00    	imul   $0x7a2c,%eax,%eax
  401533:	89 44 24 d0          	mov    %eax,-0x30(%rsp)
  401537:	8b 44 24 e4          	mov    -0x1c(%rsp),%eax
  40153b:	69 c0 ad db 00 00    	imul   $0xdbad,%eax,%eax
  401541:	89 44 24 e4          	mov    %eax,-0x1c(%rsp)
  401545:	8b 44 24 ec          	mov    -0x14(%rsp),%eax
  401549:	69 c0 aa c0 00 00    	imul   $0xc0aa,%eax,%eax
  40154f:	89 44 24 ec          	mov    %eax,-0x14(%rsp)
  401553:	8b 44 24 d8          	mov    -0x28(%rsp),%eax
  401557:	69 c0 01 3c 00 00    	imul   $0x3c01,%eax,%eax
  40155d:	89 44 24 d8          	mov    %eax,-0x28(%rsp)
  401561:	8b 44 24 d8          	mov    -0x28(%rsp),%eax
  401565:	69 c0 6f ba 00 00    	imul   $0xba6f,%eax,%eax
  40156b:	89 44 24 d8          	mov    %eax,-0x28(%rsp)
  40156f:	8b 44 24 d0          	mov    -0x30(%rsp),%eax
  401573:	69 c0 58 81 00 00    	imul   $0x8158,%eax,%eax
  401579:	89 44 24 d0          	mov    %eax,-0x30(%rsp)
  40157d:	8b 44 24 ec          	mov    -0x14(%rsp),%eax
  401581:	69 c0 d1 43 00 00    	imul   $0x43d1,%eax,%eax
  401587:	89 44 24 ec          	mov    %eax,-0x14(%rsp)
  40158b:	8b 44 24 ec          	mov    -0x14(%rsp),%eax
  40158f:	69 c0 e0 c2 00 00    	imul   $0xc2e0,%eax,%eax
  401595:	89 44 24 ec          	mov    %eax,-0x14(%rsp)
  401599:	8b 44 24 d4          	mov    -0x2c(%rsp),%eax
  40159d:	69 c0 17 af 00 00    	imul   $0xaf17,%eax,%eax
  4015a3:	89 44 24 d4          	mov    %eax,-0x2c(%rsp)
  4015a7:	8b 44 24 ec          	mov    -0x14(%rsp),%eax
  4015ab:	69 c0 ef 9a 00 00    	imul   $0x9aef,%eax,%eax
  4015b1:	89 44 24 ec          	mov    %eax,-0x14(%rsp)
  4015b5:	8b 44 24 d4          	mov    -0x2c(%rsp),%eax
  4015b9:	69 c0 c3 98 00 00    	imul   $0x98c3,%eax,%eax
  4015bf:	89 44 24 d4          	mov    %eax,-0x2c(%rsp)
  4015c3:	8b 44 24 f4          	mov    -0xc(%rsp),%eax
  4015c7:	69 c0 3b 6c 00 00    	imul   $0x6c3b,%eax,%eax
  4015cd:	89 44 24 f4          	mov    %eax,-0xc(%rsp)
  4015d1:	8b 44 24 f4          	mov    -0xc(%rsp),%eax
  4015d5:	69 c0 44 e5 00 00    	imul   $0xe544,%eax,%eax
  4015db:	89 44 24 f4          	mov    %eax,-0xc(%rsp)
  4015df:	8b 44 24 e8          	mov    -0x18(%rsp),%eax
  4015e3:	69 c0 e9 0b 00 00    	imul   $0xbe9,%eax,%eax
  4015e9:	89 44 24 e8          	mov    %eax,-0x18(%rsp)
  4015ed:	8b 44 24 e4          	mov    -0x1c(%rsp),%eax
  4015f1:	69 c0 21 a6 00 00    	imul   $0xa621,%eax,%eax
  4015f7:	89 44 24 e4          	mov    %eax,-0x1c(%rsp)
  4015fb:	8b 44 24 e8          	mov    -0x18(%rsp),%eax
  4015ff:	69 c0 3c 89 00 00    	imul   $0x893c,%eax,%eax
  401605:	89 44 24 e8          	mov    %eax,-0x18(%rsp)
  401609:	8b 44 24 dc          	mov    -0x24(%rsp),%eax
  40160d:	69 c0 6b 62 00 00    	imul   $0x626b,%eax,%eax
  401613:	89 44 24 dc          	mov    %eax,-0x24(%rsp)
  401617:	8b 44 24 d8          	mov    -0x28(%rsp),%eax
  40161b:	69 c0 e7 0f 00 00    	imul   $0xfe7,%eax,%eax
  401621:	89 44 24 d8          	mov    %eax,-0x28(%rsp)
  401625:	8b 44 24 e8          	mov    -0x18(%rsp),%eax
  401629:	69 c0 14 9f 00 00    	imul   $0x9f14,%eax,%eax
  40162f:	89 44 24 e8          	mov    %eax,-0x18(%rsp)
  401633:	8b 44 24 f0          	mov    -0x10(%rsp),%eax
  401637:	69 c0 f0 9a 00 00    	imul   $0x9af0,%eax,%eax
  40163d:	89 44 24 f0          	mov    %eax,-0x10(%rsp)
  401641:	ba 00 00 00 00       	mov    $0x0,%edx
  401646:	b8 00 00 00 00       	mov    $0x0,%eax
  40164b:	83 fa 09             	cmp    $0x9,%edx
  40164e:	77 0d                	ja     40165d <scramble+0x445>
  401650:	89 d1                	mov    %edx,%ecx
  401652:	8b 4c 8c d0          	mov    -0x30(%rsp,%rcx,4),%ecx
  401656:	01 c8                	add    %ecx,%eax
  401658:	83 c2 01             	add    $0x1,%edx
  40165b:	eb ee                	jmp    40164b <scramble+0x433>
  40165d:	c3                   	retq   

000000000040165e <getbuf>:
  40165e:	48 83 ec 28          	sub    $0x28,%rsp
  401662:	48 89 e7             	mov    %rsp,%rdi
  401665:	e8 4d 03 00 00       	callq  4019b7 <Gets>
  40166a:	b8 01 00 00 00       	mov    $0x1,%eax
  40166f:	48 83 c4 28          	add    $0x28,%rsp
  401673:	c3                   	retq   

0000000000401674 <touch1>:
  401674:	48 83 ec 08          	sub    $0x8,%rsp
  401678:	c7 05 7a 3e 20 00 01 	movl   $0x1,0x203e7a(%rip)        # 6054fc <vlevel>
  40167f:	00 00 00 
  401682:	bf 27 2f 40 00       	mov    $0x402f27,%edi
  401687:	e8 84 f5 ff ff       	callq  400c10 <puts@plt>
  40168c:	bf 01 00 00 00       	mov    $0x1,%edi
  401691:	e8 14 05 00 00       	callq  401baa <validate>
  401696:	bf 00 00 00 00       	mov    $0x0,%edi
  40169b:	e8 00 f7 ff ff       	callq  400da0 <exit@plt>

00000000004016a0 <touch2>:
  4016a0:	48 83 ec 08          	sub    $0x8,%rsp
  4016a4:	89 fe                	mov    %edi,%esi
  4016a6:	c7 05 4c 3e 20 00 02 	movl   $0x2,0x203e4c(%rip)        # 6054fc <vlevel>
  4016ad:	00 00 00 
  4016b0:	39 3d 4e 3e 20 00    	cmp    %edi,0x203e4e(%rip)        # 605504 <cookie>
  4016b6:	74 23                	je     4016db <touch2+0x3b>
  4016b8:	bf 78 2f 40 00       	mov    $0x402f78,%edi
  4016bd:	b8 00 00 00 00       	mov    $0x0,%eax
  4016c2:	e8 79 f5 ff ff       	callq  400c40 <printf@plt>
  4016c7:	bf 02 00 00 00       	mov    $0x2,%edi
  4016cc:	e8 8b 05 00 00       	callq  401c5c <fail>
  4016d1:	bf 00 00 00 00       	mov    $0x0,%edi
  4016d6:	e8 c5 f6 ff ff       	callq  400da0 <exit@plt>
  4016db:	bf 50 2f 40 00       	mov    $0x402f50,%edi
  4016e0:	b8 00 00 00 00       	mov    $0x0,%eax
  4016e5:	e8 56 f5 ff ff       	callq  400c40 <printf@plt>
  4016ea:	bf 02 00 00 00       	mov    $0x2,%edi
  4016ef:	e8 b6 04 00 00       	callq  401baa <validate>
  4016f4:	eb db                	jmp    4016d1 <touch2+0x31>

00000000004016f6 <hexmatch>:
  4016f6:	41 54                	push   %r12
  4016f8:	55                   	push   %rbp
  4016f9:	53                   	push   %rbx
  4016fa:	48 83 ec 70          	sub    $0x70,%rsp
  4016fe:	89 fd                	mov    %edi,%ebp
  401700:	48 89 f3             	mov    %rsi,%rbx
  401703:	e8 f8 f5 ff ff       	callq  400d00 <random@plt>
  401708:	48 89 c1             	mov    %rax,%rcx
  40170b:	48 ba 0b d7 a3 70 3d 	movabs $0xa3d70a3d70a3d70b,%rdx
  401712:	0a d7 a3 
  401715:	48 f7 ea             	imul   %rdx
  401718:	48 01 ca             	add    %rcx,%rdx
  40171b:	48 c1 fa 06          	sar    $0x6,%rdx
  40171f:	48 89 c8             	mov    %rcx,%rax
  401722:	48 c1 f8 3f          	sar    $0x3f,%rax
  401726:	48 29 c2             	sub    %rax,%rdx
  401729:	48 8d 04 92          	lea    (%rdx,%rdx,4),%rax
  40172d:	48 8d 14 80          	lea    (%rax,%rax,4),%rdx
  401731:	48 8d 04 95 00 00 00 	lea    0x0(,%rdx,4),%rax
  401738:	00 
  401739:	48 29 c1             	sub    %rax,%rcx
  40173c:	4c 8d 24 0c          	lea    (%rsp,%rcx,1),%r12
  401740:	89 ea                	mov    %ebp,%edx
  401742:	be 44 2f 40 00       	mov    $0x402f44,%esi
  401747:	4c 89 e7             	mov    %r12,%rdi
  40174a:	b8 00 00 00 00       	mov    $0x0,%eax
  40174f:	e8 3c f6 ff ff       	callq  400d90 <sprintf@plt>
  401754:	ba 09 00 00 00       	mov    $0x9,%edx
  401759:	4c 89 e6             	mov    %r12,%rsi
  40175c:	48 89 df             	mov    %rbx,%rdi
  40175f:	e8 8c f4 ff ff       	callq  400bf0 <strncmp@plt>
  401764:	85 c0                	test   %eax,%eax
  401766:	0f 94 c0             	sete   %al
  401769:	0f b6 c0             	movzbl %al,%eax
  40176c:	48 83 c4 70          	add    $0x70,%rsp
  401770:	5b                   	pop    %rbx
  401771:	5d                   	pop    %rbp
  401772:	41 5c                	pop    %r12
  401774:	c3                   	retq   

0000000000401775 <touch3>:
  401775:	53                   	push   %rbx
  401776:	48 89 fb             	mov    %rdi,%rbx
  401779:	c7 05 79 3d 20 00 03 	movl   $0x3,0x203d79(%rip)        # 6054fc <vlevel>
  401780:	00 00 00 
  401783:	48 89 fe             	mov    %rdi,%rsi
  401786:	8b 3d 78 3d 20 00    	mov    0x203d78(%rip),%edi        # 605504 <cookie>
  40178c:	e8 65 ff ff ff       	callq  4016f6 <hexmatch>
  401791:	85 c0                	test   %eax,%eax
  401793:	74 26                	je     4017bb <touch3+0x46>
  401795:	48 89 de             	mov    %rbx,%rsi
  401798:	bf a0 2f 40 00       	mov    $0x402fa0,%edi
  40179d:	b8 00 00 00 00       	mov    $0x0,%eax
  4017a2:	e8 99 f4 ff ff       	callq  400c40 <printf@plt>
  4017a7:	bf 03 00 00 00       	mov    $0x3,%edi
  4017ac:	e8 f9 03 00 00       	callq  401baa <validate>
  4017b1:	bf 00 00 00 00       	mov    $0x0,%edi
  4017b6:	e8 e5 f5 ff ff       	callq  400da0 <exit@plt>
  4017bb:	48 89 de             	mov    %rbx,%rsi
  4017be:	bf c8 2f 40 00       	mov    $0x402fc8,%edi
  4017c3:	b8 00 00 00 00       	mov    $0x0,%eax
  4017c8:	e8 73 f4 ff ff       	callq  400c40 <printf@plt>
  4017cd:	bf 03 00 00 00       	mov    $0x3,%edi
  4017d2:	e8 85 04 00 00       	callq  401c5c <fail>
  4017d7:	eb d8                	jmp    4017b1 <touch3+0x3c>

00000000004017d9 <test>:
  4017d9:	48 83 ec 08          	sub    $0x8,%rsp
  4017dd:	b8 00 00 00 00       	mov    $0x0,%eax
  4017e2:	e8 77 fe ff ff       	callq  40165e <getbuf>
  4017e7:	89 c6                	mov    %eax,%esi
  4017e9:	bf f0 2f 40 00       	mov    $0x402ff0,%edi
  4017ee:	b8 00 00 00 00       	mov    $0x0,%eax
  4017f3:	e8 48 f4 ff ff       	callq  400c40 <printf@plt>
  4017f8:	48 83 c4 08          	add    $0x8,%rsp
  4017fc:	c3                   	retq   

00000000004017fd <start_farm>:
  4017fd:	b8 01 00 00 00       	mov    $0x1,%eax
  401802:	c3                   	retq   

0000000000401803 <setval_135>:
  401803:	c7 07 b7 fd b7 d8    	movl   $0xd8b7fdb7,(%rdi)
  401809:	c3                   	retq   

000000000040180a <addval_286>:
  40180a:	8d 87 48 89 c7 c3    	lea    -0x3c3876b8(%rdi),%eax
  401810:	c3                   	retq   

0000000000401811 <setval_151>:
  401811:	c7 07 4a 89 c7 c3    	movl   $0xc3c7894a,(%rdi)
  401817:	c3                   	retq   

0000000000401818 <setval_445>:
  401818:	c7 07 b3 d9 71 58    	movl   $0x5871d9b3,(%rdi)
  40181e:	c3                   	retq   

000000000040181f <setval_384>:
  40181f:	c7 07 48 89 c7 c1    	movl   $0xc1c78948,(%rdi)
  401825:	c3                   	retq   

0000000000401826 <getval_304>:
  401826:	b8 58 c3 de 97       	mov    $0x97dec358,%eax
  40182b:	c3                   	retq   

000000000040182c <getval_408>:
  40182c:	b8 9a 48 89 c7       	mov    $0xc789489a,%eax
  401831:	c3                   	retq   

0000000000401832 <getval_111>:
  401832:	b8 ed c1 58 92       	mov    $0x9258c1ed,%eax
  401837:	c3                   	retq   

0000000000401838 <mid_farm>:
  401838:	b8 01 00 00 00       	mov    $0x1,%eax
  40183d:	c3                   	retq   

000000000040183e <add_xy>:
  40183e:	48 8d 04 37          	lea    (%rdi,%rsi,1),%rax
  401842:	c3                   	retq   

0000000000401843 <addval_228>:
  401843:	8d 87 89 c2 92 90    	lea    -0x6f6d3d77(%rdi),%eax
  401849:	c3                   	retq   

000000000040184a <addval_243>:
  40184a:	8d 87 41 08 89 e0    	lea    -0x1f76f7bf(%rdi),%eax
  401850:	c3                   	retq   

0000000000401851 <getval_142>:
  401851:	b8 89 ce 28 c9       	mov    $0xc928ce89,%eax
  401856:	c3                   	retq   

0000000000401857 <getval_444>:
  401857:	b8 48 89 e0 c3       	mov    $0xc3e08948,%eax
  40185c:	c3                   	retq   

000000000040185d <addval_104>:
  40185d:	8d 87 48 89 e0 c3    	lea    -0x3c1f76b8(%rdi),%eax
  401863:	c3                   	retq   

0000000000401864 <setval_206>:
  401864:	c7 07 48 89 e0 c7    	movl   $0xc7e08948,(%rdi)
  40186a:	c3                   	retq   

000000000040186b <setval_349>:
  40186b:	c7 07 89 d1 c1 00    	movl   $0xc1d189,(%rdi)
  401871:	c3                   	retq   

0000000000401872 <setval_410>:
  401872:	c7 07 89 ce 90 c1    	movl   $0xc190ce89,(%rdi)
  401878:	c3                   	retq   

0000000000401879 <getval_245>:
  401879:	b8 30 89 ce c2       	mov    $0xc2ce8930,%eax
  40187e:	c3                   	retq   

000000000040187f <getval_442>:
  40187f:	b8 89 d1 30 c9       	mov    $0xc930d189,%eax
  401884:	c3                   	retq   

0000000000401885 <addval_498>:
  401885:	8d 87 89 c2 78 d2    	lea    -0x2d873d77(%rdi),%eax
  40188b:	c3                   	retq   

000000000040188c <getval_251>:
  40188c:	b8 8d c2 90 c3       	mov    $0xc390c28d,%eax
  401891:	c3                   	retq   

0000000000401892 <getval_209>:
  401892:	b8 09 ce 90 c3       	mov    $0xc390ce09,%eax
  401897:	c3                   	retq   

0000000000401898 <setval_421>:
  401898:	c7 07 48 89 e0 92    	movl   $0x92e08948,(%rdi)
  40189e:	c3                   	retq   

000000000040189f <addval_190>:
  40189f:	8d 87 89 d1 20 c0    	lea    -0x3fdf2e77(%rdi),%eax
  4018a5:	c3                   	retq   

00000000004018a6 <setval_478>:
  4018a6:	c7 07 8b c2 08 c0    	movl   $0xc008c28b,(%rdi)
  4018ac:	c3                   	retq   

00000000004018ad <getval_335>:
  4018ad:	b8 a2 a9 d1 90       	mov    $0x90d1a9a2,%eax
  4018b2:	c3                   	retq   

00000000004018b3 <getval_239>:
  4018b3:	b8 88 ce 20 c0       	mov    $0xc020ce88,%eax
  4018b8:	c3                   	retq   

00000000004018b9 <addval_176>:
  4018b9:	8d 87 a2 89 ce 90    	lea    -0x6f31765e(%rdi),%eax
  4018bf:	c3                   	retq   

00000000004018c0 <getval_441>:
  4018c0:	b8 89 c2 30 db       	mov    $0xdb30c289,%eax
  4018c5:	c3                   	retq   

00000000004018c6 <addval_237>:
  4018c6:	8d 87 89 d1 38 c0    	lea    -0x3fc72e77(%rdi),%eax
  4018cc:	c3                   	retq   

00000000004018cd <setval_351>:
  4018cd:	c7 07 5a 49 89 e0    	movl   $0xe089495a,(%rdi)
  4018d3:	c3                   	retq   

00000000004018d4 <getval_153>:
  4018d4:	b8 99 d1 08 c9       	mov    $0xc908d199,%eax
  4018d9:	c3                   	retq   

00000000004018da <addval_299>:
  4018da:	8d 87 89 d1 94 d2    	lea    -0x2d6b2e77(%rdi),%eax
  4018e0:	c3                   	retq   

00000000004018e1 <setval_171>:
  4018e1:	c7 07 89 c2 90 c3    	movl   $0xc390c289,(%rdi)
  4018e7:	c3                   	retq   

00000000004018e8 <addval_336>:
  4018e8:	8d 87 48 89 e0 94    	lea    -0x6b1f76b8(%rdi),%eax
  4018ee:	c3                   	retq   

00000000004018ef <addval_152>:
  4018ef:	8d 87 89 c2 20 db    	lea    -0x24df3d77(%rdi),%eax
  4018f5:	c3                   	retq   

00000000004018f6 <getval_346>:
  4018f6:	b8 34 a9 d1 90       	mov    $0x90d1a934,%eax
  4018fb:	c3                   	retq   

00000000004018fc <setval_215>:
  4018fc:	c7 07 1d 89 ce c1    	movl   $0xc1ce891d,(%rdi)
  401902:	c3                   	retq   

0000000000401903 <addval_429>:
  401903:	8d 87 48 89 e0 c1    	lea    -0x3e1f76b8(%rdi),%eax
  401909:	c3                   	retq   

000000000040190a <setval_451>:
  40190a:	c7 07 8b c2 90 90    	movl   $0x9090c28b,(%rdi)
  401910:	c3                   	retq   

0000000000401911 <addval_321>:
  401911:	8d 87 89 ce 08 db    	lea    -0x24f73177(%rdi),%eax
  401917:	c3                   	retq   

0000000000401918 <end_farm>:
  401918:	b8 01 00 00 00       	mov    $0x1,%eax
  40191d:	c3                   	retq   

000000000040191e <save_char>:
  40191e:	8b 05 00 48 20 00    	mov    0x204800(%rip),%eax        # 606124 <gets_cnt>
  401924:	3d ff 03 00 00       	cmp    $0x3ff,%eax
  401929:	7f 49                	jg     401974 <save_char+0x56>
  40192b:	89 f9                	mov    %edi,%ecx
  40192d:	c0 e9 04             	shr    $0x4,%cl
  401930:	8d 14 40             	lea    (%rax,%rax,2),%edx
  401933:	83 e1 0f             	and    $0xf,%ecx
  401936:	0f b6 b1 10 33 40 00 	movzbl 0x403310(%rcx),%esi
  40193d:	48 63 ca             	movslq %edx,%rcx
  401940:	40 88 b1 20 55 60 00 	mov    %sil,0x605520(%rcx)
  401947:	8d 4a 01             	lea    0x1(%rdx),%ecx
  40194a:	83 e7 0f             	and    $0xf,%edi
  40194d:	0f b6 b7 10 33 40 00 	movzbl 0x403310(%rdi),%esi
  401954:	48 63 c9             	movslq %ecx,%rcx
  401957:	40 88 b1 20 55 60 00 	mov    %sil,0x605520(%rcx)
  40195e:	83 c2 02             	add    $0x2,%edx
  401961:	48 63 d2             	movslq %edx,%rdx
  401964:	c6 82 20 55 60 00 20 	movb   $0x20,0x605520(%rdx)
  40196b:	83 c0 01             	add    $0x1,%eax
  40196e:	89 05 b0 47 20 00    	mov    %eax,0x2047b0(%rip)        # 606124 <gets_cnt>
  401974:	c3                   	retq   

0000000000401975 <save_term>:
  401975:	8b 05 a9 47 20 00    	mov    0x2047a9(%rip),%eax        # 606124 <gets_cnt>
  40197b:	8d 04 40             	lea    (%rax,%rax,2),%eax
  40197e:	48 98                	cltq   
  401980:	c6 80 20 55 60 00 00 	movb   $0x0,0x605520(%rax)
  401987:	c3                   	retq   

0000000000401988 <check_fail>:
  401988:	48 83 ec 08          	sub    $0x8,%rsp
  40198c:	0f be 35 95 47 20 00 	movsbl 0x204795(%rip),%esi        # 606128 <target_prefix>
  401993:	b9 20 55 60 00       	mov    $0x605520,%ecx
  401998:	8b 15 5a 3b 20 00    	mov    0x203b5a(%rip),%edx        # 6054f8 <check_level>
  40199e:	bf 13 30 40 00       	mov    $0x403013,%edi
  4019a3:	b8 00 00 00 00       	mov    $0x0,%eax
  4019a8:	e8 93 f2 ff ff       	callq  400c40 <printf@plt>
  4019ad:	bf 01 00 00 00       	mov    $0x1,%edi
  4019b2:	e8 e9 f3 ff ff       	callq  400da0 <exit@plt>

00000000004019b7 <Gets>:
  4019b7:	41 54                	push   %r12
  4019b9:	55                   	push   %rbp
  4019ba:	53                   	push   %rbx
  4019bb:	49 89 fc             	mov    %rdi,%r12
  4019be:	c7 05 5c 47 20 00 00 	movl   $0x0,0x20475c(%rip)        # 606124 <gets_cnt>
  4019c5:	00 00 00 
  4019c8:	48 89 fb             	mov    %rdi,%rbx
  4019cb:	48 8b 3d 1e 3b 20 00 	mov    0x203b1e(%rip),%rdi        # 6054f0 <infile>
  4019d2:	e8 39 f3 ff ff       	callq  400d10 <_IO_getc@plt>
  4019d7:	83 f8 ff             	cmp    $0xffffffff,%eax
  4019da:	74 18                	je     4019f4 <Gets+0x3d>
  4019dc:	83 f8 0a             	cmp    $0xa,%eax
  4019df:	74 13                	je     4019f4 <Gets+0x3d>
  4019e1:	48 8d 6b 01          	lea    0x1(%rbx),%rbp
  4019e5:	88 03                	mov    %al,(%rbx)
  4019e7:	0f b6 f8             	movzbl %al,%edi
  4019ea:	e8 2f ff ff ff       	callq  40191e <save_char>
  4019ef:	48 89 eb             	mov    %rbp,%rbx
  4019f2:	eb d7                	jmp    4019cb <Gets+0x14>
  4019f4:	c6 03 00             	movb   $0x0,(%rbx)
  4019f7:	b8 00 00 00 00       	mov    $0x0,%eax
  4019fc:	e8 74 ff ff ff       	callq  401975 <save_term>
  401a01:	4c 89 e0             	mov    %r12,%rax
  401a04:	5b                   	pop    %rbx
  401a05:	5d                   	pop    %rbp
  401a06:	41 5c                	pop    %r12
  401a08:	c3                   	retq   

0000000000401a09 <notify_server>:
  401a09:	83 3d f8 3a 20 00 00 	cmpl   $0x0,0x203af8(%rip)        # 605508 <is_checker>
  401a10:	0f 85 93 01 00 00    	jne    401ba9 <notify_server+0x1a0>
  401a16:	55                   	push   %rbp
  401a17:	53                   	push   %rbx
  401a18:	48 81 ec 08 40 00 00 	sub    $0x4008,%rsp
  401a1f:	89 fb                	mov    %edi,%ebx
  401a21:	81 3d f9 46 20 00 9c 	cmpl   $0x1f9c,0x2046f9(%rip)        # 606124 <gets_cnt>
  401a28:	1f 00 00 
  401a2b:	0f 8f ad 00 00 00    	jg     401ade <notify_server+0xd5>
  401a31:	44 0f be 0d ef 46 20 	movsbl 0x2046ef(%rip),%r9d        # 606128 <target_prefix>
  401a38:	00 
  401a39:	83 3d 48 3a 20 00 00 	cmpl   $0x0,0x203a48(%rip)        # 605488 <notify>
  401a40:	0f 84 b1 00 00 00    	je     401af7 <notify_server+0xee>
  401a46:	44 8b 05 b3 3a 20 00 	mov    0x203ab3(%rip),%r8d        # 605500 <authkey>
  401a4d:	85 db                	test   %ebx,%ebx
  401a4f:	0f 84 ad 00 00 00    	je     401b02 <notify_server+0xf9>
  401a55:	bd 2e 30 40 00       	mov    $0x40302e,%ebp
  401a5a:	68 20 55 60 00       	pushq  $0x605520
  401a5f:	56                   	push   %rsi
  401a60:	48 89 e9             	mov    %rbp,%rcx
  401a63:	8b 15 df 36 20 00    	mov    0x2036df(%rip),%edx        # 605148 <target_id>
  401a69:	be 33 30 40 00       	mov    $0x403033,%esi
  401a6e:	48 8d bc 24 10 20 00 	lea    0x2010(%rsp),%rdi
  401a75:	00 
  401a76:	b8 00 00 00 00       	mov    $0x0,%eax
  401a7b:	e8 10 f3 ff ff       	callq  400d90 <sprintf@plt>
  401a80:	48 83 c4 10          	add    $0x10,%rsp
  401a84:	83 3d fd 39 20 00 00 	cmpl   $0x0,0x2039fd(%rip)        # 605488 <notify>
  401a8b:	0f 84 ab 00 00 00    	je     401b3c <notify_server+0x133>
  401a91:	85 db                	test   %ebx,%ebx
  401a93:	0f 84 8f 00 00 00    	je     401b28 <notify_server+0x11f>
  401a99:	49 89 e1             	mov    %rsp,%r9
  401a9c:	41 b8 00 00 00 00    	mov    $0x0,%r8d
  401aa2:	48 8d 8c 24 00 20 00 	lea    0x2000(%rsp),%rcx
  401aa9:	00 
  401aaa:	48 8b 15 9f 36 20 00 	mov    0x20369f(%rip),%rdx        # 605150 <lab>
  401ab1:	48 8b 35 a0 36 20 00 	mov    0x2036a0(%rip),%rsi        # 605158 <course>
  401ab8:	48 8b 3d 81 36 20 00 	mov    0x203681(%rip),%rdi        # 605140 <user_id>
  401abf:	e8 09 10 00 00       	callq  402acd <driver_post>
  401ac4:	85 c0                	test   %eax,%eax
  401ac6:	78 44                	js     401b0c <notify_server+0x103>
  401ac8:	bf 78 31 40 00       	mov    $0x403178,%edi
  401acd:	e8 3e f1 ff ff       	callq  400c10 <puts@plt>
  401ad2:	bf 5b 30 40 00       	mov    $0x40305b,%edi
  401ad7:	e8 34 f1 ff ff       	callq  400c10 <puts@plt>
  401adc:	eb 54                	jmp    401b32 <notify_server+0x129>
  401ade:	bf 48 31 40 00       	mov    $0x403148,%edi
  401ae3:	b8 00 00 00 00       	mov    $0x0,%eax
  401ae8:	e8 53 f1 ff ff       	callq  400c40 <printf@plt>
  401aed:	bf 01 00 00 00       	mov    $0x1,%edi
  401af2:	e8 a9 f2 ff ff       	callq  400da0 <exit@plt>
  401af7:	41 b8 ff ff ff ff    	mov    $0xffffffff,%r8d
  401afd:	e9 4b ff ff ff       	jmpq   401a4d <notify_server+0x44>
  401b02:	bd 29 30 40 00       	mov    $0x403029,%ebp
  401b07:	e9 4e ff ff ff       	jmpq   401a5a <notify_server+0x51>
  401b0c:	48 89 e6             	mov    %rsp,%rsi
  401b0f:	bf 4f 30 40 00       	mov    $0x40304f,%edi
  401b14:	b8 00 00 00 00       	mov    $0x0,%eax
  401b19:	e8 22 f1 ff ff       	callq  400c40 <printf@plt>
  401b1e:	bf 01 00 00 00       	mov    $0x1,%edi
  401b23:	e8 78 f2 ff ff       	callq  400da0 <exit@plt>
  401b28:	bf 65 30 40 00       	mov    $0x403065,%edi
  401b2d:	e8 de f0 ff ff       	callq  400c10 <puts@plt>
  401b32:	48 81 c4 08 40 00 00 	add    $0x4008,%rsp
  401b39:	5b                   	pop    %rbx
  401b3a:	5d                   	pop    %rbp
  401b3b:	c3                   	retq   
  401b3c:	48 89 ee             	mov    %rbp,%rsi
  401b3f:	bf b0 31 40 00       	mov    $0x4031b0,%edi
  401b44:	b8 00 00 00 00       	mov    $0x0,%eax
  401b49:	e8 f2 f0 ff ff       	callq  400c40 <printf@plt>
  401b4e:	48 8b 35 eb 35 20 00 	mov    0x2035eb(%rip),%rsi        # 605140 <user_id>
  401b55:	bf 6c 30 40 00       	mov    $0x40306c,%edi
  401b5a:	b8 00 00 00 00       	mov    $0x0,%eax
  401b5f:	e8 dc f0 ff ff       	callq  400c40 <printf@plt>
  401b64:	48 8b 35 ed 35 20 00 	mov    0x2035ed(%rip),%rsi        # 605158 <course>
  401b6b:	bf 79 30 40 00       	mov    $0x403079,%edi
  401b70:	b8 00 00 00 00       	mov    $0x0,%eax
  401b75:	e8 c6 f0 ff ff       	callq  400c40 <printf@plt>
  401b7a:	48 8b 35 cf 35 20 00 	mov    0x2035cf(%rip),%rsi        # 605150 <lab>
  401b81:	bf 85 30 40 00       	mov    $0x403085,%edi
  401b86:	b8 00 00 00 00       	mov    $0x0,%eax
  401b8b:	e8 b0 f0 ff ff       	callq  400c40 <printf@plt>
  401b90:	48 8d b4 24 00 20 00 	lea    0x2000(%rsp),%rsi
  401b97:	00 
  401b98:	bf 8e 30 40 00       	mov    $0x40308e,%edi
  401b9d:	b8 00 00 00 00       	mov    $0x0,%eax
  401ba2:	e8 99 f0 ff ff       	callq  400c40 <printf@plt>
  401ba7:	eb 89                	jmp    401b32 <notify_server+0x129>
  401ba9:	c3                   	retq   

0000000000401baa <validate>:
  401baa:	53                   	push   %rbx
  401bab:	89 fb                	mov    %edi,%ebx
  401bad:	83 3d 54 39 20 00 00 	cmpl   $0x0,0x203954(%rip)        # 605508 <is_checker>
  401bb4:	74 60                	je     401c16 <validate+0x6c>
  401bb6:	39 3d 40 39 20 00    	cmp    %edi,0x203940(%rip)        # 6054fc <vlevel>
  401bbc:	75 29                	jne    401be7 <validate+0x3d>
  401bbe:	8b 35 34 39 20 00    	mov    0x203934(%rip),%esi        # 6054f8 <check_level>
  401bc4:	39 fe                	cmp    %edi,%esi
  401bc6:	75 33                	jne    401bfb <validate+0x51>
  401bc8:	0f be 35 59 45 20 00 	movsbl 0x204559(%rip),%esi        # 606128 <target_prefix>
  401bcf:	b9 20 55 60 00       	mov    $0x605520,%ecx
  401bd4:	89 fa                	mov    %edi,%edx
  401bd6:	bf b8 30 40 00       	mov    $0x4030b8,%edi
  401bdb:	b8 00 00 00 00       	mov    $0x0,%eax
  401be0:	e8 5b f0 ff ff       	callq  400c40 <printf@plt>
  401be5:	5b                   	pop    %rbx
  401be6:	c3                   	retq   
  401be7:	bf 9a 30 40 00       	mov    $0x40309a,%edi
  401bec:	e8 1f f0 ff ff       	callq  400c10 <puts@plt>
  401bf1:	b8 00 00 00 00       	mov    $0x0,%eax
  401bf6:	e8 8d fd ff ff       	callq  401988 <check_fail>
  401bfb:	89 fa                	mov    %edi,%edx
  401bfd:	bf d8 31 40 00       	mov    $0x4031d8,%edi
  401c02:	b8 00 00 00 00       	mov    $0x0,%eax
  401c07:	e8 34 f0 ff ff       	callq  400c40 <printf@plt>
  401c0c:	b8 00 00 00 00       	mov    $0x0,%eax
  401c11:	e8 72 fd ff ff       	callq  401988 <check_fail>
  401c16:	39 3d e0 38 20 00    	cmp    %edi,0x2038e0(%rip)        # 6054fc <vlevel>
  401c1c:	74 18                	je     401c36 <validate+0x8c>
  401c1e:	bf 9a 30 40 00       	mov    $0x40309a,%edi
  401c23:	e8 e8 ef ff ff       	callq  400c10 <puts@plt>
  401c28:	89 de                	mov    %ebx,%esi
  401c2a:	bf 00 00 00 00       	mov    $0x0,%edi
  401c2f:	e8 d5 fd ff ff       	callq  401a09 <notify_server>
  401c34:	eb af                	jmp    401be5 <validate+0x3b>
  401c36:	0f be 15 eb 44 20 00 	movsbl 0x2044eb(%rip),%edx        # 606128 <target_prefix>
  401c3d:	89 fe                	mov    %edi,%esi
  401c3f:	bf 00 32 40 00       	mov    $0x403200,%edi
  401c44:	b8 00 00 00 00       	mov    $0x0,%eax
  401c49:	e8 f2 ef ff ff       	callq  400c40 <printf@plt>
  401c4e:	89 de                	mov    %ebx,%esi
  401c50:	bf 01 00 00 00       	mov    $0x1,%edi
  401c55:	e8 af fd ff ff       	callq  401a09 <notify_server>
  401c5a:	eb 89                	jmp    401be5 <validate+0x3b>

0000000000401c5c <fail>:
  401c5c:	48 83 ec 08          	sub    $0x8,%rsp
  401c60:	83 3d a1 38 20 00 00 	cmpl   $0x0,0x2038a1(%rip)        # 605508 <is_checker>
  401c67:	75 11                	jne    401c7a <fail+0x1e>
  401c69:	89 fe                	mov    %edi,%esi
  401c6b:	bf 00 00 00 00       	mov    $0x0,%edi
  401c70:	e8 94 fd ff ff       	callq  401a09 <notify_server>
  401c75:	48 83 c4 08          	add    $0x8,%rsp
  401c79:	c3                   	retq   
  401c7a:	b8 00 00 00 00       	mov    $0x0,%eax
  401c7f:	e8 04 fd ff ff       	callq  401988 <check_fail>

0000000000401c84 <bushandler>:
  401c84:	48 83 ec 08          	sub    $0x8,%rsp
  401c88:	83 3d 79 38 20 00 00 	cmpl   $0x0,0x203879(%rip)        # 605508 <is_checker>
  401c8f:	74 14                	je     401ca5 <bushandler+0x21>
  401c91:	bf cd 30 40 00       	mov    $0x4030cd,%edi
  401c96:	e8 75 ef ff ff       	callq  400c10 <puts@plt>
  401c9b:	b8 00 00 00 00       	mov    $0x0,%eax
  401ca0:	e8 e3 fc ff ff       	callq  401988 <check_fail>
  401ca5:	bf 38 32 40 00       	mov    $0x403238,%edi
  401caa:	e8 61 ef ff ff       	callq  400c10 <puts@plt>
  401caf:	bf d7 30 40 00       	mov    $0x4030d7,%edi
  401cb4:	e8 57 ef ff ff       	callq  400c10 <puts@plt>
  401cb9:	be 00 00 00 00       	mov    $0x0,%esi
  401cbe:	bf 00 00 00 00       	mov    $0x0,%edi
  401cc3:	e8 41 fd ff ff       	callq  401a09 <notify_server>
  401cc8:	bf 01 00 00 00       	mov    $0x1,%edi
  401ccd:	e8 ce f0 ff ff       	callq  400da0 <exit@plt>

0000000000401cd2 <seghandler>:
  401cd2:	48 83 ec 08          	sub    $0x8,%rsp
  401cd6:	83 3d 2b 38 20 00 00 	cmpl   $0x0,0x20382b(%rip)        # 605508 <is_checker>
  401cdd:	74 14                	je     401cf3 <seghandler+0x21>
  401cdf:	bf ed 30 40 00       	mov    $0x4030ed,%edi
  401ce4:	e8 27 ef ff ff       	callq  400c10 <puts@plt>
  401ce9:	b8 00 00 00 00       	mov    $0x0,%eax
  401cee:	e8 95 fc ff ff       	callq  401988 <check_fail>
  401cf3:	bf 58 32 40 00       	mov    $0x403258,%edi
  401cf8:	e8 13 ef ff ff       	callq  400c10 <puts@plt>
  401cfd:	bf d7 30 40 00       	mov    $0x4030d7,%edi
  401d02:	e8 09 ef ff ff       	callq  400c10 <puts@plt>
  401d07:	be 00 00 00 00       	mov    $0x0,%esi
  401d0c:	bf 00 00 00 00       	mov    $0x0,%edi
  401d11:	e8 f3 fc ff ff       	callq  401a09 <notify_server>
  401d16:	bf 01 00 00 00       	mov    $0x1,%edi
  401d1b:	e8 80 f0 ff ff       	callq  400da0 <exit@plt>

0000000000401d20 <illegalhandler>:
  401d20:	48 83 ec 08          	sub    $0x8,%rsp
  401d24:	83 3d dd 37 20 00 00 	cmpl   $0x0,0x2037dd(%rip)        # 605508 <is_checker>
  401d2b:	74 14                	je     401d41 <illegalhandler+0x21>
  401d2d:	bf 00 31 40 00       	mov    $0x403100,%edi
  401d32:	e8 d9 ee ff ff       	callq  400c10 <puts@plt>
  401d37:	b8 00 00 00 00       	mov    $0x0,%eax
  401d3c:	e8 47 fc ff ff       	callq  401988 <check_fail>
  401d41:	bf 80 32 40 00       	mov    $0x403280,%edi
  401d46:	e8 c5 ee ff ff       	callq  400c10 <puts@plt>
  401d4b:	bf d7 30 40 00       	mov    $0x4030d7,%edi
  401d50:	e8 bb ee ff ff       	callq  400c10 <puts@plt>
  401d55:	be 00 00 00 00       	mov    $0x0,%esi
  401d5a:	bf 00 00 00 00       	mov    $0x0,%edi
  401d5f:	e8 a5 fc ff ff       	callq  401a09 <notify_server>
  401d64:	bf 01 00 00 00       	mov    $0x1,%edi
  401d69:	e8 32 f0 ff ff       	callq  400da0 <exit@plt>

0000000000401d6e <sigalrmhandler>:
  401d6e:	48 83 ec 08          	sub    $0x8,%rsp
  401d72:	83 3d 8f 37 20 00 00 	cmpl   $0x0,0x20378f(%rip)        # 605508 <is_checker>
  401d79:	74 14                	je     401d8f <sigalrmhandler+0x21>
  401d7b:	bf 14 31 40 00       	mov    $0x403114,%edi
  401d80:	e8 8b ee ff ff       	callq  400c10 <puts@plt>
  401d85:	b8 00 00 00 00       	mov    $0x0,%eax
  401d8a:	e8 f9 fb ff ff       	callq  401988 <check_fail>
  401d8f:	be 05 00 00 00       	mov    $0x5,%esi
  401d94:	bf b0 32 40 00       	mov    $0x4032b0,%edi
  401d99:	b8 00 00 00 00       	mov    $0x0,%eax
  401d9e:	e8 9d ee ff ff       	callq  400c40 <printf@plt>
  401da3:	be 00 00 00 00       	mov    $0x0,%esi
  401da8:	bf 00 00 00 00       	mov    $0x0,%edi
  401dad:	e8 57 fc ff ff       	callq  401a09 <notify_server>
  401db2:	bf 01 00 00 00       	mov    $0x1,%edi
  401db7:	e8 e4 ef ff ff       	callq  400da0 <exit@plt>

0000000000401dbc <launch>:
  401dbc:	55                   	push   %rbp
  401dbd:	48 89 e5             	mov    %rsp,%rbp
  401dc0:	48 89 fa             	mov    %rdi,%rdx
  401dc3:	48 8d 47 17          	lea    0x17(%rdi),%rax
  401dc7:	48 83 e0 f0          	and    $0xfffffffffffffff0,%rax
  401dcb:	48 29 c4             	sub    %rax,%rsp
  401dce:	48 8d 7c 24 0f       	lea    0xf(%rsp),%rdi
  401dd3:	48 83 e7 f0          	and    $0xfffffffffffffff0,%rdi
  401dd7:	be f4 00 00 00       	mov    $0xf4,%esi
  401ddc:	e8 6f ee ff ff       	callq  400c50 <memset@plt>
  401de1:	48 8b 05 b8 36 20 00 	mov    0x2036b8(%rip),%rax        # 6054a0 <stdin@@GLIBC_2.2.5>
  401de8:	48 39 05 01 37 20 00 	cmp    %rax,0x203701(%rip)        # 6054f0 <infile>
  401def:	74 29                	je     401e1a <launch+0x5e>
  401df1:	c7 05 01 37 20 00 00 	movl   $0x0,0x203701(%rip)        # 6054fc <vlevel>
  401df8:	00 00 00 
  401dfb:	b8 00 00 00 00       	mov    $0x0,%eax
  401e00:	e8 d4 f9 ff ff       	callq  4017d9 <test>
  401e05:	83 3d fc 36 20 00 00 	cmpl   $0x0,0x2036fc(%rip)        # 605508 <is_checker>
  401e0c:	75 1d                	jne    401e2b <launch+0x6f>
  401e0e:	bf 34 31 40 00       	mov    $0x403134,%edi
  401e13:	e8 f8 ed ff ff       	callq  400c10 <puts@plt>
  401e18:	c9                   	leaveq 
  401e19:	c3                   	retq   
  401e1a:	bf 1c 31 40 00       	mov    $0x40311c,%edi
  401e1f:	b8 00 00 00 00       	mov    $0x0,%eax
  401e24:	e8 17 ee ff ff       	callq  400c40 <printf@plt>
  401e29:	eb c6                	jmp    401df1 <launch+0x35>
  401e2b:	bf 29 31 40 00       	mov    $0x403129,%edi
  401e30:	e8 db ed ff ff       	callq  400c10 <puts@plt>
  401e35:	b8 00 00 00 00       	mov    $0x0,%eax
  401e3a:	e8 49 fb ff ff       	callq  401988 <check_fail>

0000000000401e3f <stable_launch>:
  401e3f:	53                   	push   %rbx
  401e40:	48 89 3d a1 36 20 00 	mov    %rdi,0x2036a1(%rip)        # 6054e8 <global_offset>
  401e47:	41 b9 00 00 00 00    	mov    $0x0,%r9d
  401e4d:	41 b8 00 00 00 00    	mov    $0x0,%r8d
  401e53:	b9 32 01 00 00       	mov    $0x132,%ecx
  401e58:	ba 07 00 00 00       	mov    $0x7,%edx
  401e5d:	be 00 00 10 00       	mov    $0x100000,%esi
  401e62:	bf 00 60 58 55       	mov    $0x55586000,%edi
  401e67:	e8 c4 ed ff ff       	callq  400c30 <mmap@plt>
  401e6c:	48 89 c3             	mov    %rax,%rbx
  401e6f:	48 3d 00 60 58 55    	cmp    $0x55586000,%rax
  401e75:	75 43                	jne    401eba <stable_launch+0x7b>
  401e77:	48 8d 90 f8 ff 0f 00 	lea    0xffff8(%rax),%rdx
  401e7e:	48 89 15 ab 42 20 00 	mov    %rdx,0x2042ab(%rip)        # 606130 <stack_top>
  401e85:	48 89 e0             	mov    %rsp,%rax
  401e88:	48 89 d4             	mov    %rdx,%rsp
  401e8b:	48 89 c2             	mov    %rax,%rdx
  401e8e:	48 89 15 4b 36 20 00 	mov    %rdx,0x20364b(%rip)        # 6054e0 <global_save_stack>
  401e95:	48 8b 3d 4c 36 20 00 	mov    0x20364c(%rip),%rdi        # 6054e8 <global_offset>
  401e9c:	e8 1b ff ff ff       	callq  401dbc <launch>
  401ea1:	48 8b 05 38 36 20 00 	mov    0x203638(%rip),%rax        # 6054e0 <global_save_stack>
  401ea8:	48 89 c4             	mov    %rax,%rsp
  401eab:	be 00 00 10 00       	mov    $0x100000,%esi
  401eb0:	48 89 df             	mov    %rbx,%rdi
  401eb3:	e8 78 ee ff ff       	callq  400d30 <munmap@plt>
  401eb8:	5b                   	pop    %rbx
  401eb9:	c3                   	retq   
  401eba:	be 00 00 10 00       	mov    $0x100000,%esi
  401ebf:	48 89 c7             	mov    %rax,%rdi
  401ec2:	e8 69 ee ff ff       	callq  400d30 <munmap@plt>
  401ec7:	ba 00 60 58 55       	mov    $0x55586000,%edx
  401ecc:	be e8 32 40 00       	mov    $0x4032e8,%esi
  401ed1:	48 8b 3d f0 35 20 00 	mov    0x2035f0(%rip),%rdi        # 6054c8 <stderr@@GLIBC_2.2.5>
  401ed8:	b8 00 00 00 00       	mov    $0x0,%eax
  401edd:	e8 ee ed ff ff       	callq  400cd0 <fprintf@plt>
  401ee2:	bf 01 00 00 00       	mov    $0x1,%edi
  401ee7:	e8 b4 ee ff ff       	callq  400da0 <exit@plt>

0000000000401eec <rio_readinitb>:
  401eec:	89 37                	mov    %esi,(%rdi)
  401eee:	c7 47 04 00 00 00 00 	movl   $0x0,0x4(%rdi)
  401ef5:	48 8d 47 10          	lea    0x10(%rdi),%rax
  401ef9:	48 89 47 08          	mov    %rax,0x8(%rdi)
  401efd:	c3                   	retq   

0000000000401efe <sigalrm_handler>:
  401efe:	48 83 ec 08          	sub    $0x8,%rsp
  401f02:	ba 00 00 00 00       	mov    $0x0,%edx
  401f07:	be 20 33 40 00       	mov    $0x403320,%esi
  401f0c:	48 8b 3d b5 35 20 00 	mov    0x2035b5(%rip),%rdi        # 6054c8 <stderr@@GLIBC_2.2.5>
  401f13:	b8 00 00 00 00       	mov    $0x0,%eax
  401f18:	e8 b3 ed ff ff       	callq  400cd0 <fprintf@plt>
  401f1d:	bf 01 00 00 00       	mov    $0x1,%edi
  401f22:	e8 79 ee ff ff       	callq  400da0 <exit@plt>

0000000000401f27 <urlencode>:
  401f27:	41 54                	push   %r12
  401f29:	55                   	push   %rbp
  401f2a:	53                   	push   %rbx
  401f2b:	48 83 ec 10          	sub    $0x10,%rsp
  401f2f:	48 89 fb             	mov    %rdi,%rbx
  401f32:	48 89 f5             	mov    %rsi,%rbp
  401f35:	48 c7 c1 ff ff ff ff 	mov    $0xffffffffffffffff,%rcx
  401f3c:	b8 00 00 00 00       	mov    $0x0,%eax
  401f41:	f2 ae                	repnz scas %es:(%rdi),%al
  401f43:	48 89 ce             	mov    %rcx,%rsi
  401f46:	48 f7 d6             	not    %rsi
  401f49:	8d 46 ff             	lea    -0x1(%rsi),%eax
  401f4c:	eb 0e                	jmp    401f5c <urlencode+0x35>
  401f4e:	88 55 00             	mov    %dl,0x0(%rbp)
  401f51:	48 8d 6d 01          	lea    0x1(%rbp),%rbp
  401f55:	48 83 c3 01          	add    $0x1,%rbx
  401f59:	44 89 e0             	mov    %r12d,%eax
  401f5c:	44 8d 60 ff          	lea    -0x1(%rax),%r12d
  401f60:	85 c0                	test   %eax,%eax
  401f62:	0f 84 93 00 00 00    	je     401ffb <urlencode+0xd4>
  401f68:	0f b6 13             	movzbl (%rbx),%edx
  401f6b:	80 fa 2a             	cmp    $0x2a,%dl
  401f6e:	0f 94 c1             	sete   %cl
  401f71:	80 fa 2d             	cmp    $0x2d,%dl
  401f74:	0f 94 c0             	sete   %al
  401f77:	08 c1                	or     %al,%cl
  401f79:	75 d3                	jne    401f4e <urlencode+0x27>
  401f7b:	80 fa 2e             	cmp    $0x2e,%dl
  401f7e:	74 ce                	je     401f4e <urlencode+0x27>
  401f80:	80 fa 5f             	cmp    $0x5f,%dl
  401f83:	74 c9                	je     401f4e <urlencode+0x27>
  401f85:	8d 42 d0             	lea    -0x30(%rdx),%eax
  401f88:	3c 09                	cmp    $0x9,%al
  401f8a:	76 c2                	jbe    401f4e <urlencode+0x27>
  401f8c:	8d 42 bf             	lea    -0x41(%rdx),%eax
  401f8f:	3c 19                	cmp    $0x19,%al
  401f91:	76 bb                	jbe    401f4e <urlencode+0x27>
  401f93:	8d 42 9f             	lea    -0x61(%rdx),%eax
  401f96:	3c 19                	cmp    $0x19,%al
  401f98:	76 b4                	jbe    401f4e <urlencode+0x27>
  401f9a:	80 fa 20             	cmp    $0x20,%dl
  401f9d:	74 4a                	je     401fe9 <urlencode+0xc2>
  401f9f:	8d 42 e0             	lea    -0x20(%rdx),%eax
  401fa2:	3c 5f                	cmp    $0x5f,%al
  401fa4:	0f 96 c1             	setbe  %cl
  401fa7:	80 fa 09             	cmp    $0x9,%dl
  401faa:	0f 94 c0             	sete   %al
  401fad:	08 c1                	or     %al,%cl
  401faf:	74 45                	je     401ff6 <urlencode+0xcf>
  401fb1:	0f b6 d2             	movzbl %dl,%edx
  401fb4:	be b8 33 40 00       	mov    $0x4033b8,%esi
  401fb9:	48 8d 7c 24 08       	lea    0x8(%rsp),%rdi
  401fbe:	b8 00 00 00 00       	mov    $0x0,%eax
  401fc3:	e8 c8 ed ff ff       	callq  400d90 <sprintf@plt>
  401fc8:	0f b6 44 24 08       	movzbl 0x8(%rsp),%eax
  401fcd:	88 45 00             	mov    %al,0x0(%rbp)
  401fd0:	0f b6 44 24 09       	movzbl 0x9(%rsp),%eax
  401fd5:	88 45 01             	mov    %al,0x1(%rbp)
  401fd8:	0f b6 44 24 0a       	movzbl 0xa(%rsp),%eax
  401fdd:	88 45 02             	mov    %al,0x2(%rbp)
  401fe0:	48 8d 6d 03          	lea    0x3(%rbp),%rbp
  401fe4:	e9 6c ff ff ff       	jmpq   401f55 <urlencode+0x2e>
  401fe9:	c6 45 00 2b          	movb   $0x2b,0x0(%rbp)
  401fed:	48 8d 6d 01          	lea    0x1(%rbp),%rbp
  401ff1:	e9 5f ff ff ff       	jmpq   401f55 <urlencode+0x2e>
  401ff6:	b8 ff ff ff ff       	mov    $0xffffffff,%eax
  401ffb:	48 83 c4 10          	add    $0x10,%rsp
  401fff:	5b                   	pop    %rbx
  402000:	5d                   	pop    %rbp
  402001:	41 5c                	pop    %r12
  402003:	c3                   	retq   

0000000000402004 <rio_writen>:
  402004:	41 55                	push   %r13
  402006:	41 54                	push   %r12
  402008:	55                   	push   %rbp
  402009:	53                   	push   %rbx
  40200a:	48 83 ec 08          	sub    $0x8,%rsp
  40200e:	41 89 fc             	mov    %edi,%r12d
  402011:	48 89 f5             	mov    %rsi,%rbp
  402014:	49 89 d5             	mov    %rdx,%r13
  402017:	48 89 d3             	mov    %rdx,%rbx
  40201a:	eb 06                	jmp    402022 <rio_writen+0x1e>
  40201c:	48 29 c3             	sub    %rax,%rbx
  40201f:	48 01 c5             	add    %rax,%rbp
  402022:	48 85 db             	test   %rbx,%rbx
  402025:	74 24                	je     40204b <rio_writen+0x47>
  402027:	48 89 da             	mov    %rbx,%rdx
  40202a:	48 89 ee             	mov    %rbp,%rsi
  40202d:	44 89 e7             	mov    %r12d,%edi
  402030:	e8 eb eb ff ff       	callq  400c20 <write@plt>
  402035:	48 85 c0             	test   %rax,%rax
  402038:	7f e2                	jg     40201c <rio_writen+0x18>
  40203a:	e8 91 eb ff ff       	callq  400bd0 <__errno_location@plt>
  40203f:	83 38 04             	cmpl   $0x4,(%rax)
  402042:	75 15                	jne    402059 <rio_writen+0x55>
  402044:	b8 00 00 00 00       	mov    $0x0,%eax
  402049:	eb d1                	jmp    40201c <rio_writen+0x18>
  40204b:	4c 89 e8             	mov    %r13,%rax
  40204e:	48 83 c4 08          	add    $0x8,%rsp
  402052:	5b                   	pop    %rbx
  402053:	5d                   	pop    %rbp
  402054:	41 5c                	pop    %r12
  402056:	41 5d                	pop    %r13
  402058:	c3                   	retq   
  402059:	48 c7 c0 ff ff ff ff 	mov    $0xffffffffffffffff,%rax
  402060:	eb ec                	jmp    40204e <rio_writen+0x4a>

0000000000402062 <rio_read>:
  402062:	41 55                	push   %r13
  402064:	41 54                	push   %r12
  402066:	55                   	push   %rbp
  402067:	53                   	push   %rbx
  402068:	48 83 ec 08          	sub    $0x8,%rsp
  40206c:	48 89 fb             	mov    %rdi,%rbx
  40206f:	49 89 f5             	mov    %rsi,%r13
  402072:	49 89 d4             	mov    %rdx,%r12
  402075:	eb 0a                	jmp    402081 <rio_read+0x1f>
  402077:	e8 54 eb ff ff       	callq  400bd0 <__errno_location@plt>
  40207c:	83 38 04             	cmpl   $0x4,(%rax)
  40207f:	75 5a                	jne    4020db <rio_read+0x79>
  402081:	8b 6b 04             	mov    0x4(%rbx),%ebp
  402084:	85 ed                	test   %ebp,%ebp
  402086:	7f 22                	jg     4020aa <rio_read+0x48>
  402088:	48 8d 6b 10          	lea    0x10(%rbx),%rbp
  40208c:	ba 00 20 00 00       	mov    $0x2000,%edx
  402091:	48 89 ee             	mov    %rbp,%rsi
  402094:	8b 3b                	mov    (%rbx),%edi
  402096:	e8 e5 eb ff ff       	callq  400c80 <read@plt>
  40209b:	89 43 04             	mov    %eax,0x4(%rbx)
  40209e:	85 c0                	test   %eax,%eax
  4020a0:	78 d5                	js     402077 <rio_read+0x15>
  4020a2:	74 40                	je     4020e4 <rio_read+0x82>
  4020a4:	48 89 6b 08          	mov    %rbp,0x8(%rbx)
  4020a8:	eb d7                	jmp    402081 <rio_read+0x1f>
  4020aa:	89 e8                	mov    %ebp,%eax
  4020ac:	4c 39 e0             	cmp    %r12,%rax
  4020af:	72 03                	jb     4020b4 <rio_read+0x52>
  4020b1:	44 89 e5             	mov    %r12d,%ebp
  4020b4:	4c 63 e5             	movslq %ebp,%r12
  4020b7:	48 8b 73 08          	mov    0x8(%rbx),%rsi
  4020bb:	4c 89 e2             	mov    %r12,%rdx
  4020be:	4c 89 ef             	mov    %r13,%rdi
  4020c1:	e8 da eb ff ff       	callq  400ca0 <memcpy@plt>
  4020c6:	4c 01 63 08          	add    %r12,0x8(%rbx)
  4020ca:	29 6b 04             	sub    %ebp,0x4(%rbx)
  4020cd:	4c 89 e0             	mov    %r12,%rax
  4020d0:	48 83 c4 08          	add    $0x8,%rsp
  4020d4:	5b                   	pop    %rbx
  4020d5:	5d                   	pop    %rbp
  4020d6:	41 5c                	pop    %r12
  4020d8:	41 5d                	pop    %r13
  4020da:	c3                   	retq   
  4020db:	48 c7 c0 ff ff ff ff 	mov    $0xffffffffffffffff,%rax
  4020e2:	eb ec                	jmp    4020d0 <rio_read+0x6e>
  4020e4:	b8 00 00 00 00       	mov    $0x0,%eax
  4020e9:	eb e5                	jmp    4020d0 <rio_read+0x6e>

00000000004020eb <rio_readlineb>:
  4020eb:	41 55                	push   %r13
  4020ed:	41 54                	push   %r12
  4020ef:	55                   	push   %rbp
  4020f0:	53                   	push   %rbx
  4020f1:	48 83 ec 18          	sub    $0x18,%rsp
  4020f5:	49 89 fd             	mov    %rdi,%r13
  4020f8:	48 89 f5             	mov    %rsi,%rbp
  4020fb:	49 89 d4             	mov    %rdx,%r12
  4020fe:	bb 01 00 00 00       	mov    $0x1,%ebx
  402103:	4c 39 e3             	cmp    %r12,%rbx
  402106:	73 44                	jae    40214c <rio_readlineb+0x61>
  402108:	ba 01 00 00 00       	mov    $0x1,%edx
  40210d:	48 8d 74 24 0f       	lea    0xf(%rsp),%rsi
  402112:	4c 89 ef             	mov    %r13,%rdi
  402115:	e8 48 ff ff ff       	callq  402062 <rio_read>
  40211a:	83 f8 01             	cmp    $0x1,%eax
  40211d:	75 19                	jne    402138 <rio_readlineb+0x4d>
  40211f:	48 8d 55 01          	lea    0x1(%rbp),%rdx
  402123:	0f b6 44 24 0f       	movzbl 0xf(%rsp),%eax
  402128:	88 45 00             	mov    %al,0x0(%rbp)
  40212b:	3c 0a                	cmp    $0xa,%al
  40212d:	74 1a                	je     402149 <rio_readlineb+0x5e>
  40212f:	48 83 c3 01          	add    $0x1,%rbx
  402133:	48 89 d5             	mov    %rdx,%rbp
  402136:	eb cb                	jmp    402103 <rio_readlineb+0x18>
  402138:	85 c0                	test   %eax,%eax
  40213a:	75 22                	jne    40215e <rio_readlineb+0x73>
  40213c:	48 83 fb 01          	cmp    $0x1,%rbx
  402140:	75 0a                	jne    40214c <rio_readlineb+0x61>
  402142:	b8 00 00 00 00       	mov    $0x0,%eax
  402147:	eb 0a                	jmp    402153 <rio_readlineb+0x68>
  402149:	48 89 d5             	mov    %rdx,%rbp
  40214c:	c6 45 00 00          	movb   $0x0,0x0(%rbp)
  402150:	48 89 d8             	mov    %rbx,%rax
  402153:	48 83 c4 18          	add    $0x18,%rsp
  402157:	5b                   	pop    %rbx
  402158:	5d                   	pop    %rbp
  402159:	41 5c                	pop    %r12
  40215b:	41 5d                	pop    %r13
  40215d:	c3                   	retq   
  40215e:	48 c7 c0 ff ff ff ff 	mov    $0xffffffffffffffff,%rax
  402165:	eb ec                	jmp    402153 <rio_readlineb+0x68>

0000000000402167 <submitr>:
  402167:	41 57                	push   %r15
  402169:	41 56                	push   %r14
  40216b:	41 55                	push   %r13
  40216d:	41 54                	push   %r12
  40216f:	55                   	push   %rbp
  402170:	53                   	push   %rbx
  402171:	48 81 ec 48 a0 00 00 	sub    $0xa048,%rsp
  402178:	49 89 fc             	mov    %rdi,%r12
  40217b:	89 74 24 04          	mov    %esi,0x4(%rsp)
  40217f:	49 89 d7             	mov    %rdx,%r15
  402182:	49 89 ce             	mov    %rcx,%r14
  402185:	4c 89 44 24 08       	mov    %r8,0x8(%rsp)
  40218a:	4d 89 cd             	mov    %r9,%r13
  40218d:	48 8b ac 24 80 a0 00 	mov    0xa080(%rsp),%rbp
  402194:	00 
  402195:	c7 84 24 1c 20 00 00 	movl   $0x0,0x201c(%rsp)
  40219c:	00 00 00 00 
  4021a0:	ba 00 00 00 00       	mov    $0x0,%edx
  4021a5:	be 01 00 00 00       	mov    $0x1,%esi
  4021aa:	bf 02 00 00 00       	mov    $0x2,%edi
  4021af:	e8 0c ec ff ff       	callq  400dc0 <socket@plt>
  4021b4:	85 c0                	test   %eax,%eax
  4021b6:	0f 88 cd 01 00 00    	js     402389 <submitr+0x222>
  4021bc:	89 c3                	mov    %eax,%ebx
  4021be:	4c 89 e7             	mov    %r12,%rdi
  4021c1:	e8 fa ea ff ff       	callq  400cc0 <gethostbyname@plt>
  4021c6:	48 85 c0             	test   %rax,%rax
  4021c9:	0f 84 09 02 00 00    	je     4023d8 <submitr+0x271>
  4021cf:	48 c7 84 24 32 a0 00 	movq   $0x0,0xa032(%rsp)
  4021d6:	00 00 00 00 00 
  4021db:	c7 84 24 3a a0 00 00 	movl   $0x0,0xa03a(%rsp)
  4021e2:	00 00 00 00 
  4021e6:	66 c7 84 24 3e a0 00 	movw   $0x0,0xa03e(%rsp)
  4021ed:	00 00 00 
  4021f0:	66 c7 84 24 30 a0 00 	movw   $0x2,0xa030(%rsp)
  4021f7:	00 02 00 
  4021fa:	48 8b 48 18          	mov    0x18(%rax),%rcx
  4021fe:	48 63 50 14          	movslq 0x14(%rax),%rdx
  402202:	48 8d bc 24 34 a0 00 	lea    0xa034(%rsp),%rdi
  402209:	00 
  40220a:	48 8b 31             	mov    (%rcx),%rsi
  40220d:	e8 2e eb ff ff       	callq  400d40 <memmove@plt>
  402212:	0f b7 44 24 04       	movzwl 0x4(%rsp),%eax
  402217:	66 c1 c8 08          	ror    $0x8,%ax
  40221b:	66 89 84 24 32 a0 00 	mov    %ax,0xa032(%rsp)
  402222:	00 
  402223:	ba 10 00 00 00       	mov    $0x10,%edx
  402228:	48 8d b4 24 30 a0 00 	lea    0xa030(%rsp),%rsi
  40222f:	00 
  402230:	89 df                	mov    %ebx,%edi
  402232:	e8 79 eb ff ff       	callq  400db0 <connect@plt>
  402237:	85 c0                	test   %eax,%eax
  402239:	0f 88 01 02 00 00    	js     402440 <submitr+0x2d9>
  40223f:	48 c7 c6 ff ff ff ff 	mov    $0xffffffffffffffff,%rsi
  402246:	b8 00 00 00 00       	mov    $0x0,%eax
  40224b:	48 89 f1             	mov    %rsi,%rcx
  40224e:	4c 89 ef             	mov    %r13,%rdi
  402251:	f2 ae                	repnz scas %es:(%rdi),%al
  402253:	48 89 ca             	mov    %rcx,%rdx
  402256:	48 f7 d2             	not    %rdx
  402259:	48 89 f1             	mov    %rsi,%rcx
  40225c:	4c 89 ff             	mov    %r15,%rdi
  40225f:	f2 ae                	repnz scas %es:(%rdi),%al
  402261:	48 f7 d1             	not    %rcx
  402264:	49 89 c8             	mov    %rcx,%r8
  402267:	48 89 f1             	mov    %rsi,%rcx
  40226a:	4c 89 f7             	mov    %r14,%rdi
  40226d:	f2 ae                	repnz scas %es:(%rdi),%al
  40226f:	48 f7 d1             	not    %rcx
  402272:	4d 8d 44 08 fe       	lea    -0x2(%r8,%rcx,1),%r8
  402277:	48 89 f1             	mov    %rsi,%rcx
  40227a:	48 8b 7c 24 08       	mov    0x8(%rsp),%rdi
  40227f:	f2 ae                	repnz scas %es:(%rdi),%al
  402281:	48 89 c8             	mov    %rcx,%rax
  402284:	48 f7 d0             	not    %rax
  402287:	49 8d 4c 00 ff       	lea    -0x1(%r8,%rax,1),%rcx
  40228c:	48 8d 44 52 fd       	lea    -0x3(%rdx,%rdx,2),%rax
  402291:	48 8d 84 01 80 00 00 	lea    0x80(%rcx,%rax,1),%rax
  402298:	00 
  402299:	48 3d 00 20 00 00    	cmp    $0x2000,%rax
  40229f:	0f 87 f5 01 00 00    	ja     40249a <submitr+0x333>
  4022a5:	48 8d b4 24 20 40 00 	lea    0x4020(%rsp),%rsi
  4022ac:	00 
  4022ad:	b9 00 04 00 00       	mov    $0x400,%ecx
  4022b2:	b8 00 00 00 00       	mov    $0x0,%eax
  4022b7:	48 89 f7             	mov    %rsi,%rdi
  4022ba:	f3 48 ab             	rep stos %rax,%es:(%rdi)
  4022bd:	4c 89 ef             	mov    %r13,%rdi
  4022c0:	e8 62 fc ff ff       	callq  401f27 <urlencode>
  4022c5:	85 c0                	test   %eax,%eax
  4022c7:	0f 88 40 02 00 00    	js     40250d <submitr+0x3a6>
  4022cd:	4c 8d ac 24 20 60 00 	lea    0x6020(%rsp),%r13
  4022d4:	00 
  4022d5:	4d 89 e1             	mov    %r12,%r9
  4022d8:	4c 8d 84 24 20 40 00 	lea    0x4020(%rsp),%r8
  4022df:	00 
  4022e0:	4c 89 f9             	mov    %r15,%rcx
  4022e3:	4c 89 f2             	mov    %r14,%rdx
  4022e6:	be 48 33 40 00       	mov    $0x403348,%esi
  4022eb:	4c 89 ef             	mov    %r13,%rdi
  4022ee:	b8 00 00 00 00       	mov    $0x0,%eax
  4022f3:	e8 98 ea ff ff       	callq  400d90 <sprintf@plt>
  4022f8:	48 c7 c1 ff ff ff ff 	mov    $0xffffffffffffffff,%rcx
  4022ff:	b8 00 00 00 00       	mov    $0x0,%eax
  402304:	4c 89 ef             	mov    %r13,%rdi
  402307:	f2 ae                	repnz scas %es:(%rdi),%al
  402309:	48 89 ca             	mov    %rcx,%rdx
  40230c:	48 f7 d2             	not    %rdx
  40230f:	48 8d 52 ff          	lea    -0x1(%rdx),%rdx
  402313:	4c 89 ee             	mov    %r13,%rsi
  402316:	89 df                	mov    %ebx,%edi
  402318:	e8 e7 fc ff ff       	callq  402004 <rio_writen>
  40231d:	48 85 c0             	test   %rax,%rax
  402320:	0f 88 72 02 00 00    	js     402598 <submitr+0x431>
  402326:	89 de                	mov    %ebx,%esi
  402328:	48 8d bc 24 20 80 00 	lea    0x8020(%rsp),%rdi
  40232f:	00 
  402330:	e8 b7 fb ff ff       	callq  401eec <rio_readinitb>
  402335:	ba 00 20 00 00       	mov    $0x2000,%edx
  40233a:	48 8d b4 24 20 60 00 	lea    0x6020(%rsp),%rsi
  402341:	00 
  402342:	48 8d bc 24 20 80 00 	lea    0x8020(%rsp),%rdi
  402349:	00 
  40234a:	e8 9c fd ff ff       	callq  4020eb <rio_readlineb>
  40234f:	48 85 c0             	test   %rax,%rax
  402352:	0f 8e af 02 00 00    	jle    402607 <submitr+0x4a0>
  402358:	4c 8d 44 24 10       	lea    0x10(%rsp),%r8
  40235d:	48 8d 8c 24 1c 20 00 	lea    0x201c(%rsp),%rcx
  402364:	00 
  402365:	48 8d 94 24 20 20 00 	lea    0x2020(%rsp),%rdx
  40236c:	00 
  40236d:	be bf 33 40 00       	mov    $0x4033bf,%esi
  402372:	48 8d bc 24 20 60 00 	lea    0x6020(%rsp),%rdi
  402379:	00 
  40237a:	b8 00 00 00 00       	mov    $0x0,%eax
  40237f:	e8 9c e9 ff ff       	callq  400d20 <__isoc99_sscanf@plt>
  402384:	e9 a7 03 00 00       	jmpq   402730 <submitr+0x5c9>
  402389:	48 b8 45 72 72 6f 72 	movabs $0x43203a726f727245,%rax
  402390:	3a 20 43 
  402393:	48 ba 6c 69 65 6e 74 	movabs $0x6e7520746e65696c,%rdx
  40239a:	20 75 6e 
  40239d:	48 89 45 00          	mov    %rax,0x0(%rbp)
  4023a1:	48 89 55 08          	mov    %rdx,0x8(%rbp)
  4023a5:	48 b8 61 62 6c 65 20 	movabs $0x206f7420656c6261,%rax
  4023ac:	74 6f 20 
  4023af:	48 ba 63 72 65 61 74 	movabs $0x7320657461657263,%rdx
  4023b6:	65 20 73 
  4023b9:	48 89 45 10          	mov    %rax,0x10(%rbp)
  4023bd:	48 89 55 18          	mov    %rdx,0x18(%rbp)
  4023c1:	c7 45 20 6f 63 6b 65 	movl   $0x656b636f,0x20(%rbp)
  4023c8:	66 c7 45 24 74 00    	movw   $0x74,0x24(%rbp)
  4023ce:	b8 ff ff ff ff       	mov    $0xffffffff,%eax
  4023d3:	e9 1f 03 00 00       	jmpq   4026f7 <submitr+0x590>
  4023d8:	48 b8 45 72 72 6f 72 	movabs $0x44203a726f727245,%rax
  4023df:	3a 20 44 
  4023e2:	48 ba 4e 53 20 69 73 	movabs $0x6e7520736920534e,%rdx
  4023e9:	20 75 6e 
  4023ec:	48 89 45 00          	mov    %rax,0x0(%rbp)
  4023f0:	48 89 55 08          	mov    %rdx,0x8(%rbp)
  4023f4:	48 b8 61 62 6c 65 20 	movabs $0x206f7420656c6261,%rax
  4023fb:	74 6f 20 
  4023fe:	48 ba 72 65 73 6f 6c 	movabs $0x2065766c6f736572,%rdx
  402405:	76 65 20 
  402408:	48 89 45 10          	mov    %rax,0x10(%rbp)
  40240c:	48 89 55 18          	mov    %rdx,0x18(%rbp)
  402410:	48 b8 73 65 72 76 65 	movabs $0x6120726576726573,%rax
  402417:	72 20 61 
  40241a:	48 89 45 20          	mov    %rax,0x20(%rbp)
  40241e:	c7 45 28 64 64 72 65 	movl   $0x65726464,0x28(%rbp)
  402425:	66 c7 45 2c 73 73    	movw   $0x7373,0x2c(%rbp)
  40242b:	c6 45 2e 00          	movb   $0x0,0x2e(%rbp)
  40242f:	89 df                	mov    %ebx,%edi
  402431:	e8 3a e8 ff ff       	callq  400c70 <close@plt>
  402436:	b8 ff ff ff ff       	mov    $0xffffffff,%eax
  40243b:	e9 b7 02 00 00       	jmpq   4026f7 <submitr+0x590>
  402440:	48 b8 45 72 72 6f 72 	movabs $0x55203a726f727245,%rax
  402447:	3a 20 55 
  40244a:	48 ba 6e 61 62 6c 65 	movabs $0x6f7420656c62616e,%rdx
  402451:	20 74 6f 
  402454:	48 89 45 00          	mov    %rax,0x0(%rbp)
  402458:	48 89 55 08          	mov    %rdx,0x8(%rbp)
  40245c:	48 b8 20 63 6f 6e 6e 	movabs $0x7463656e6e6f6320,%rax
  402463:	65 63 74 
  402466:	48 ba 20 74 6f 20 74 	movabs $0x20656874206f7420,%rdx
  40246d:	68 65 20 
  402470:	48 89 45 10          	mov    %rax,0x10(%rbp)
  402474:	48 89 55 18          	mov    %rdx,0x18(%rbp)
  402478:	c7 45 20 73 65 72 76 	movl   $0x76726573,0x20(%rbp)
  40247f:	66 c7 45 24 65 72    	movw   $0x7265,0x24(%rbp)
  402485:	c6 45 26 00          	movb   $0x0,0x26(%rbp)
  402489:	89 df                	mov    %ebx,%edi
  40248b:	e8 e0 e7 ff ff       	callq  400c70 <close@plt>
  402490:	b8 ff ff ff ff       	mov    $0xffffffff,%eax
  402495:	e9 5d 02 00 00       	jmpq   4026f7 <submitr+0x590>
  40249a:	48 b8 45 72 72 6f 72 	movabs $0x52203a726f727245,%rax
  4024a1:	3a 20 52 
  4024a4:	48 ba 65 73 75 6c 74 	movabs $0x747320746c757365,%rdx
  4024ab:	20 73 74 
  4024ae:	48 89 45 00          	mov    %rax,0x0(%rbp)
  4024b2:	48 89 55 08          	mov    %rdx,0x8(%rbp)
  4024b6:	48 b8 72 69 6e 67 20 	movabs $0x6f6f7420676e6972,%rax
  4024bd:	74 6f 6f 
  4024c0:	48 ba 20 6c 61 72 67 	movabs $0x202e656772616c20,%rdx
  4024c7:	65 2e 20 
  4024ca:	48 89 45 10          	mov    %rax,0x10(%rbp)
  4024ce:	48 89 55 18          	mov    %rdx,0x18(%rbp)
  4024d2:	48 b8 49 6e 63 72 65 	movabs $0x6573616572636e49,%rax
  4024d9:	61 73 65 
  4024dc:	48 ba 20 53 55 42 4d 	movabs $0x5254494d42555320,%rdx
  4024e3:	49 54 52 
  4024e6:	48 89 45 20          	mov    %rax,0x20(%rbp)
  4024ea:	48 89 55 28          	mov    %rdx,0x28(%rbp)
  4024ee:	48 b8 5f 4d 41 58 42 	movabs $0x46554258414d5f,%rax
  4024f5:	55 46 00 
  4024f8:	48 89 45 30          	mov    %rax,0x30(%rbp)
  4024fc:	89 df                	mov    %ebx,%edi
  4024fe:	e8 6d e7 ff ff       	callq  400c70 <close@plt>
  402503:	b8 ff ff ff ff       	mov    $0xffffffff,%eax
  402508:	e9 ea 01 00 00       	jmpq   4026f7 <submitr+0x590>
  40250d:	48 b8 45 72 72 6f 72 	movabs $0x52203a726f727245,%rax
  402514:	3a 20 52 
  402517:	48 ba 65 73 75 6c 74 	movabs $0x747320746c757365,%rdx
  40251e:	20 73 74 
  402521:	48 89 45 00          	mov    %rax,0x0(%rbp)
  402525:	48 89 55 08          	mov    %rdx,0x8(%rbp)
  402529:	48 b8 72 69 6e 67 20 	movabs $0x6e6f6320676e6972,%rax
  402530:	63 6f 6e 
  402533:	48 ba 74 61 69 6e 73 	movabs $0x6e6120736e696174,%rdx
  40253a:	20 61 6e 
  40253d:	48 89 45 10          	mov    %rax,0x10(%rbp)
  402541:	48 89 55 18          	mov    %rdx,0x18(%rbp)
  402545:	48 b8 20 69 6c 6c 65 	movabs $0x6c6167656c6c6920,%rax
  40254c:	67 61 6c 
  40254f:	48 ba 20 6f 72 20 75 	movabs $0x72706e7520726f20,%rdx
  402556:	6e 70 72 
  402559:	48 89 45 20          	mov    %rax,0x20(%rbp)
  40255d:	48 89 55 28          	mov    %rdx,0x28(%rbp)
  402561:	48 b8 69 6e 74 61 62 	movabs $0x20656c6261746e69,%rax
  402568:	6c 65 20 
  40256b:	48 ba 63 68 61 72 61 	movabs $0x6574636172616863,%rdx
  402572:	63 74 65 
  402575:	48 89 45 30          	mov    %rax,0x30(%rbp)
  402579:	48 89 55 38          	mov    %rdx,0x38(%rbp)
  40257d:	66 c7 45 40 72 2e    	movw   $0x2e72,0x40(%rbp)
  402583:	c6 45 42 00          	movb   $0x0,0x42(%rbp)
  402587:	89 df                	mov    %ebx,%edi
  402589:	e8 e2 e6 ff ff       	callq  400c70 <close@plt>
  40258e:	b8 ff ff ff ff       	mov    $0xffffffff,%eax
  402593:	e9 5f 01 00 00       	jmpq   4026f7 <submitr+0x590>
  402598:	48 b8 45 72 72 6f 72 	movabs $0x43203a726f727245,%rax
  40259f:	3a 20 43 
  4025a2:	48 ba 6c 69 65 6e 74 	movabs $0x6e7520746e65696c,%rdx
  4025a9:	20 75 6e 
  4025ac:	48 89 45 00          	mov    %rax,0x0(%rbp)
  4025b0:	48 89 55 08          	mov    %rdx,0x8(%rbp)
  4025b4:	48 b8 61 62 6c 65 20 	movabs $0x206f7420656c6261,%rax
  4025bb:	74 6f 20 
  4025be:	48 ba 77 72 69 74 65 	movabs $0x6f74206574697277,%rdx
  4025c5:	20 74 6f 
  4025c8:	48 89 45 10          	mov    %rax,0x10(%rbp)
  4025cc:	48 89 55 18          	mov    %rdx,0x18(%rbp)
  4025d0:	48 b8 20 74 68 65 20 	movabs $0x7365722065687420,%rax
  4025d7:	72 65 73 
  4025da:	48 ba 75 6c 74 20 73 	movabs $0x7672657320746c75,%rdx
  4025e1:	65 72 76 
  4025e4:	48 89 45 20          	mov    %rax,0x20(%rbp)
  4025e8:	48 89 55 28          	mov    %rdx,0x28(%rbp)
  4025ec:	66 c7 45 30 65 72    	movw   $0x7265,0x30(%rbp)
  4025f2:	c6 45 32 00          	movb   $0x0,0x32(%rbp)
  4025f6:	89 df                	mov    %ebx,%edi
  4025f8:	e8 73 e6 ff ff       	callq  400c70 <close@plt>
  4025fd:	b8 ff ff ff ff       	mov    $0xffffffff,%eax
  402602:	e9 f0 00 00 00       	jmpq   4026f7 <submitr+0x590>
  402607:	48 b8 45 72 72 6f 72 	movabs $0x43203a726f727245,%rax
  40260e:	3a 20 43 
  402611:	48 ba 6c 69 65 6e 74 	movabs $0x6e7520746e65696c,%rdx
  402618:	20 75 6e 
  40261b:	48 89 45 00          	mov    %rax,0x0(%rbp)
  40261f:	48 89 55 08          	mov    %rdx,0x8(%rbp)
  402623:	48 b8 61 62 6c 65 20 	movabs $0x206f7420656c6261,%rax
  40262a:	74 6f 20 
  40262d:	48 ba 72 65 61 64 20 	movabs $0x7269662064616572,%rdx
  402634:	66 69 72 
  402637:	48 89 45 10          	mov    %rax,0x10(%rbp)
  40263b:	48 89 55 18          	mov    %rdx,0x18(%rbp)
  40263f:	48 b8 73 74 20 68 65 	movabs $0x6564616568207473,%rax
  402646:	61 64 65 
  402649:	48 ba 72 20 66 72 6f 	movabs $0x72206d6f72662072,%rdx
  402650:	6d 20 72 
  402653:	48 89 45 20          	mov    %rax,0x20(%rbp)
  402657:	48 89 55 28          	mov    %rdx,0x28(%rbp)
  40265b:	48 b8 65 73 75 6c 74 	movabs $0x657320746c757365,%rax
  402662:	20 73 65 
  402665:	48 89 45 30          	mov    %rax,0x30(%rbp)
  402669:	c7 45 38 72 76 65 72 	movl   $0x72657672,0x38(%rbp)
  402670:	c6 45 3c 00          	movb   $0x0,0x3c(%rbp)
  402674:	89 df                	mov    %ebx,%edi
  402676:	e8 f5 e5 ff ff       	callq  400c70 <close@plt>
  40267b:	b8 ff ff ff ff       	mov    $0xffffffff,%eax
  402680:	eb 75                	jmp    4026f7 <submitr+0x590>
  402682:	48 b8 45 72 72 6f 72 	movabs $0x43203a726f727245,%rax
  402689:	3a 20 43 
  40268c:	48 ba 6c 69 65 6e 74 	movabs $0x6e7520746e65696c,%rdx
  402693:	20 75 6e 
  402696:	48 89 45 00          	mov    %rax,0x0(%rbp)
  40269a:	48 89 55 08          	mov    %rdx,0x8(%rbp)
  40269e:	48 b8 61 62 6c 65 20 	movabs $0x206f7420656c6261,%rax
  4026a5:	74 6f 20 
  4026a8:	48 ba 72 65 61 64 20 	movabs $0x6165682064616572,%rdx
  4026af:	68 65 61 
  4026b2:	48 89 45 10          	mov    %rax,0x10(%rbp)
  4026b6:	48 89 55 18          	mov    %rdx,0x18(%rbp)
  4026ba:	48 b8 64 65 72 73 20 	movabs $0x6f72662073726564,%rax
  4026c1:	66 72 6f 
  4026c4:	48 ba 6d 20 74 68 65 	movabs $0x657220656874206d,%rdx
  4026cb:	20 72 65 
  4026ce:	48 89 45 20          	mov    %rax,0x20(%rbp)
  4026d2:	48 89 55 28          	mov    %rdx,0x28(%rbp)
  4026d6:	48 b8 73 75 6c 74 20 	movabs $0x72657320746c7573,%rax
  4026dd:	73 65 72 
  4026e0:	48 89 45 30          	mov    %rax,0x30(%rbp)
  4026e4:	c7 45 38 76 65 72 00 	movl   $0x726576,0x38(%rbp)
  4026eb:	89 df                	mov    %ebx,%edi
  4026ed:	e8 7e e5 ff ff       	callq  400c70 <close@plt>
  4026f2:	b8 ff ff ff ff       	mov    $0xffffffff,%eax
  4026f7:	48 81 c4 48 a0 00 00 	add    $0xa048,%rsp
  4026fe:	5b                   	pop    %rbx
  4026ff:	5d                   	pop    %rbp
  402700:	41 5c                	pop    %r12
  402702:	41 5d                	pop    %r13
  402704:	41 5e                	pop    %r14
  402706:	41 5f                	pop    %r15
  402708:	c3                   	retq   
  402709:	85 c0                	test   %eax,%eax
  40270b:	74 47                	je     402754 <submitr+0x5ed>
  40270d:	ba 00 20 00 00       	mov    $0x2000,%edx
  402712:	48 8d b4 24 20 60 00 	lea    0x6020(%rsp),%rsi
  402719:	00 
  40271a:	48 8d bc 24 20 80 00 	lea    0x8020(%rsp),%rdi
  402721:	00 
  402722:	e8 c4 f9 ff ff       	callq  4020eb <rio_readlineb>
  402727:	48 85 c0             	test   %rax,%rax
  40272a:	0f 8e 52 ff ff ff    	jle    402682 <submitr+0x51b>
  402730:	0f b6 84 24 20 60 00 	movzbl 0x6020(%rsp),%eax
  402737:	00 
  402738:	83 e8 0d             	sub    $0xd,%eax
  40273b:	75 cc                	jne    402709 <submitr+0x5a2>
  40273d:	0f b6 84 24 21 60 00 	movzbl 0x6021(%rsp),%eax
  402744:	00 
  402745:	83 e8 0a             	sub    $0xa,%eax
  402748:	75 bf                	jne    402709 <submitr+0x5a2>
  40274a:	0f b6 84 24 22 60 00 	movzbl 0x6022(%rsp),%eax
  402751:	00 
  402752:	eb b5                	jmp    402709 <submitr+0x5a2>
  402754:	ba 00 20 00 00       	mov    $0x2000,%edx
  402759:	48 8d b4 24 20 60 00 	lea    0x6020(%rsp),%rsi
  402760:	00 
  402761:	48 8d bc 24 20 80 00 	lea    0x8020(%rsp),%rdi
  402768:	00 
  402769:	e8 7d f9 ff ff       	callq  4020eb <rio_readlineb>
  40276e:	48 85 c0             	test   %rax,%rax
  402771:	7e 5a                	jle    4027cd <submitr+0x666>
  402773:	8b 94 24 1c 20 00 00 	mov    0x201c(%rsp),%edx
  40277a:	81 fa c8 00 00 00    	cmp    $0xc8,%edx
  402780:	0f 85 cb 00 00 00    	jne    402851 <submitr+0x6ea>
  402786:	48 8d b4 24 20 60 00 	lea    0x6020(%rsp),%rsi
  40278d:	00 
  40278e:	48 89 ef             	mov    %rbp,%rdi
  402791:	e8 6a e4 ff ff       	callq  400c00 <strcpy@plt>
  402796:	89 df                	mov    %ebx,%edi
  402798:	e8 d3 e4 ff ff       	callq  400c70 <close@plt>
  40279d:	0f b6 55 00          	movzbl 0x0(%rbp),%edx
  4027a1:	83 ea 4f             	sub    $0x4f,%edx
  4027a4:	0f 85 cf 00 00 00    	jne    402879 <submitr+0x712>
  4027aa:	0f b6 45 01          	movzbl 0x1(%rbp),%eax
  4027ae:	83 e8 4b             	sub    $0x4b,%eax
  4027b1:	0f 85 c4 00 00 00    	jne    40287b <submitr+0x714>
  4027b7:	0f b6 45 02          	movzbl 0x2(%rbp),%eax
  4027bb:	83 e8 0a             	sub    $0xa,%eax
  4027be:	0f 85 b7 00 00 00    	jne    40287b <submitr+0x714>
  4027c4:	0f b6 45 03          	movzbl 0x3(%rbp),%eax
  4027c8:	e9 ae 00 00 00       	jmpq   40287b <submitr+0x714>
  4027cd:	48 b8 45 72 72 6f 72 	movabs $0x43203a726f727245,%rax
  4027d4:	3a 20 43 
  4027d7:	48 ba 6c 69 65 6e 74 	movabs $0x6e7520746e65696c,%rdx
  4027de:	20 75 6e 
  4027e1:	48 89 45 00          	mov    %rax,0x0(%rbp)
  4027e5:	48 89 55 08          	mov    %rdx,0x8(%rbp)
  4027e9:	48 b8 61 62 6c 65 20 	movabs $0x206f7420656c6261,%rax
  4027f0:	74 6f 20 
  4027f3:	48 ba 72 65 61 64 20 	movabs $0x6174732064616572,%rdx
  4027fa:	73 74 61 
  4027fd:	48 89 45 10          	mov    %rax,0x10(%rbp)
  402801:	48 89 55 18          	mov    %rdx,0x18(%rbp)
  402805:	48 b8 74 75 73 20 6d 	movabs $0x7373656d20737574,%rax
  40280c:	65 73 73 
  40280f:	48 ba 61 67 65 20 66 	movabs $0x6d6f726620656761,%rdx
  402816:	72 6f 6d 
  402819:	48 89 45 20          	mov    %rax,0x20(%rbp)
  40281d:	48 89 55 28          	mov    %rdx,0x28(%rbp)
  402821:	48 b8 20 72 65 73 75 	movabs $0x20746c7573657220,%rax
  402828:	6c 74 20 
  40282b:	48 89 45 30          	mov    %rax,0x30(%rbp)
  40282f:	c7 45 38 73 65 72 76 	movl   $0x76726573,0x38(%rbp)
  402836:	66 c7 45 3c 65 72    	movw   $0x7265,0x3c(%rbp)
  40283c:	c6 45 3e 00          	movb   $0x0,0x3e(%rbp)
  402840:	89 df                	mov    %ebx,%edi
  402842:	e8 29 e4 ff ff       	callq  400c70 <close@plt>
  402847:	b8 ff ff ff ff       	mov    $0xffffffff,%eax
  40284c:	e9 a6 fe ff ff       	jmpq   4026f7 <submitr+0x590>
  402851:	48 8d 4c 24 10       	lea    0x10(%rsp),%rcx
  402856:	be 88 33 40 00       	mov    $0x403388,%esi
  40285b:	48 89 ef             	mov    %rbp,%rdi
  40285e:	b8 00 00 00 00       	mov    $0x0,%eax
  402863:	e8 28 e5 ff ff       	callq  400d90 <sprintf@plt>
  402868:	89 df                	mov    %ebx,%edi
  40286a:	e8 01 e4 ff ff       	callq  400c70 <close@plt>
  40286f:	b8 ff ff ff ff       	mov    $0xffffffff,%eax
  402874:	e9 7e fe ff ff       	jmpq   4026f7 <submitr+0x590>
  402879:	89 d0                	mov    %edx,%eax
  40287b:	85 c0                	test   %eax,%eax
  40287d:	0f 84 74 fe ff ff    	je     4026f7 <submitr+0x590>
  402883:	bf d0 33 40 00       	mov    $0x4033d0,%edi
  402888:	b9 05 00 00 00       	mov    $0x5,%ecx
  40288d:	48 89 ee             	mov    %rbp,%rsi
  402890:	f3 a6                	repz cmpsb %es:(%rdi),%ds:(%rsi)
  402892:	0f 97 c0             	seta   %al
  402895:	1c 00                	sbb    $0x0,%al
  402897:	0f be c0             	movsbl %al,%eax
  40289a:	85 c0                	test   %eax,%eax
  40289c:	0f 84 55 fe ff ff    	je     4026f7 <submitr+0x590>
  4028a2:	85 d2                	test   %edx,%edx
  4028a4:	75 0d                	jne    4028b3 <submitr+0x74c>
  4028a6:	0f b6 55 01          	movzbl 0x1(%rbp),%edx
  4028aa:	83 ea 4b             	sub    $0x4b,%edx
  4028ad:	75 04                	jne    4028b3 <submitr+0x74c>
  4028af:	0f b6 55 02          	movzbl 0x2(%rbp),%edx
  4028b3:	85 d2                	test   %edx,%edx
  4028b5:	75 07                	jne    4028be <submitr+0x757>
  4028b7:	89 d0                	mov    %edx,%eax
  4028b9:	e9 39 fe ff ff       	jmpq   4026f7 <submitr+0x590>
  4028be:	b8 ff ff ff ff       	mov    $0xffffffff,%eax
  4028c3:	e9 2f fe ff ff       	jmpq   4026f7 <submitr+0x590>

00000000004028c8 <init_timeout>:
  4028c8:	85 ff                	test   %edi,%edi
  4028ca:	74 24                	je     4028f0 <init_timeout+0x28>
  4028cc:	53                   	push   %rbx
  4028cd:	89 fb                	mov    %edi,%ebx
  4028cf:	78 18                	js     4028e9 <init_timeout+0x21>
  4028d1:	be fe 1e 40 00       	mov    $0x401efe,%esi
  4028d6:	bf 0e 00 00 00       	mov    $0xe,%edi
  4028db:	e8 d0 e3 ff ff       	callq  400cb0 <signal@plt>
  4028e0:	89 df                	mov    %ebx,%edi
  4028e2:	e8 79 e3 ff ff       	callq  400c60 <alarm@plt>
  4028e7:	5b                   	pop    %rbx
  4028e8:	c3                   	retq   
  4028e9:	bb 00 00 00 00       	mov    $0x0,%ebx
  4028ee:	eb e1                	jmp    4028d1 <init_timeout+0x9>
  4028f0:	c3                   	retq   

00000000004028f1 <init_driver>:
  4028f1:	55                   	push   %rbp
  4028f2:	53                   	push   %rbx
  4028f3:	48 83 ec 18          	sub    $0x18,%rsp
  4028f7:	48 89 fd             	mov    %rdi,%rbp
  4028fa:	be 01 00 00 00       	mov    $0x1,%esi
  4028ff:	bf 0d 00 00 00       	mov    $0xd,%edi
  402904:	e8 a7 e3 ff ff       	callq  400cb0 <signal@plt>
  402909:	be 01 00 00 00       	mov    $0x1,%esi
  40290e:	bf 1d 00 00 00       	mov    $0x1d,%edi
  402913:	e8 98 e3 ff ff       	callq  400cb0 <signal@plt>
  402918:	be 01 00 00 00       	mov    $0x1,%esi
  40291d:	bf 1d 00 00 00       	mov    $0x1d,%edi
  402922:	e8 89 e3 ff ff       	callq  400cb0 <signal@plt>
  402927:	ba 00 00 00 00       	mov    $0x0,%edx
  40292c:	be 01 00 00 00       	mov    $0x1,%esi
  402931:	bf 02 00 00 00       	mov    $0x2,%edi
  402936:	e8 85 e4 ff ff       	callq  400dc0 <socket@plt>
  40293b:	85 c0                	test   %eax,%eax
  40293d:	0f 88 83 00 00 00    	js     4029c6 <init_driver+0xd5>
  402943:	89 c3                	mov    %eax,%ebx
  402945:	bf 19 2f 40 00       	mov    $0x402f19,%edi
  40294a:	e8 71 e3 ff ff       	callq  400cc0 <gethostbyname@plt>
  40294f:	48 85 c0             	test   %rax,%rax
  402952:	0f 84 ba 00 00 00    	je     402a12 <init_driver+0x121>
  402958:	48 c7 44 24 02 00 00 	movq   $0x0,0x2(%rsp)
  40295f:	00 00 
  402961:	c7 44 24 0a 00 00 00 	movl   $0x0,0xa(%rsp)
  402968:	00 
  402969:	66 c7 44 24 0e 00 00 	movw   $0x0,0xe(%rsp)
  402970:	66 c7 04 24 02 00    	movw   $0x2,(%rsp)
  402976:	48 8b 48 18          	mov    0x18(%rax),%rcx
  40297a:	48 63 50 14          	movslq 0x14(%rax),%rdx
  40297e:	48 8d 7c 24 04       	lea    0x4(%rsp),%rdi
  402983:	48 8b 31             	mov    (%rcx),%rsi
  402986:	e8 b5 e3 ff ff       	callq  400d40 <memmove@plt>
  40298b:	66 c7 44 24 02 3c 9a 	movw   $0x9a3c,0x2(%rsp)
  402992:	ba 10 00 00 00       	mov    $0x10,%edx
  402997:	48 89 e6             	mov    %rsp,%rsi
  40299a:	89 df                	mov    %ebx,%edi
  40299c:	e8 0f e4 ff ff       	callq  400db0 <connect@plt>
  4029a1:	85 c0                	test   %eax,%eax
  4029a3:	0f 88 d1 00 00 00    	js     402a7a <init_driver+0x189>
  4029a9:	89 df                	mov    %ebx,%edi
  4029ab:	e8 c0 e2 ff ff       	callq  400c70 <close@plt>
  4029b0:	66 c7 45 00 4f 4b    	movw   $0x4b4f,0x0(%rbp)
  4029b6:	c6 45 02 00          	movb   $0x0,0x2(%rbp)
  4029ba:	b8 00 00 00 00       	mov    $0x0,%eax
  4029bf:	48 83 c4 18          	add    $0x18,%rsp
  4029c3:	5b                   	pop    %rbx
  4029c4:	5d                   	pop    %rbp
  4029c5:	c3                   	retq   
  4029c6:	48 b8 45 72 72 6f 72 	movabs $0x43203a726f727245,%rax
  4029cd:	3a 20 43 
  4029d0:	48 ba 6c 69 65 6e 74 	movabs $0x6e7520746e65696c,%rdx
  4029d7:	20 75 6e 
  4029da:	48 89 45 00          	mov    %rax,0x0(%rbp)
  4029de:	48 89 55 08          	mov    %rdx,0x8(%rbp)
  4029e2:	48 b8 61 62 6c 65 20 	movabs $0x206f7420656c6261,%rax
  4029e9:	74 6f 20 
  4029ec:	48 ba 63 72 65 61 74 	movabs $0x7320657461657263,%rdx
  4029f3:	65 20 73 
  4029f6:	48 89 45 10          	mov    %rax,0x10(%rbp)
  4029fa:	48 89 55 18          	mov    %rdx,0x18(%rbp)
  4029fe:	c7 45 20 6f 63 6b 65 	movl   $0x656b636f,0x20(%rbp)
  402a05:	66 c7 45 24 74 00    	movw   $0x74,0x24(%rbp)
  402a0b:	b8 ff ff ff ff       	mov    $0xffffffff,%eax
  402a10:	eb ad                	jmp    4029bf <init_driver+0xce>
  402a12:	48 b8 45 72 72 6f 72 	movabs $0x44203a726f727245,%rax
  402a19:	3a 20 44 
  402a1c:	48 ba 4e 53 20 69 73 	movabs $0x6e7520736920534e,%rdx
  402a23:	20 75 6e 
  402a26:	48 89 45 00          	mov    %rax,0x0(%rbp)
  402a2a:	48 89 55 08          	mov    %rdx,0x8(%rbp)
  402a2e:	48 b8 61 62 6c 65 20 	movabs $0x206f7420656c6261,%rax
  402a35:	74 6f 20 
  402a38:	48 ba 72 65 73 6f 6c 	movabs $0x2065766c6f736572,%rdx
  402a3f:	76 65 20 
  402a42:	48 89 45 10          	mov    %rax,0x10(%rbp)
  402a46:	48 89 55 18          	mov    %rdx,0x18(%rbp)
  402a4a:	48 b8 73 65 72 76 65 	movabs $0x6120726576726573,%rax
  402a51:	72 20 61 
  402a54:	48 89 45 20          	mov    %rax,0x20(%rbp)
  402a58:	c7 45 28 64 64 72 65 	movl   $0x65726464,0x28(%rbp)
  402a5f:	66 c7 45 2c 73 73    	movw   $0x7373,0x2c(%rbp)
  402a65:	c6 45 2e 00          	movb   $0x0,0x2e(%rbp)
  402a69:	89 df                	mov    %ebx,%edi
  402a6b:	e8 00 e2 ff ff       	callq  400c70 <close@plt>
  402a70:	b8 ff ff ff ff       	mov    $0xffffffff,%eax
  402a75:	e9 45 ff ff ff       	jmpq   4029bf <init_driver+0xce>
  402a7a:	48 b8 45 72 72 6f 72 	movabs $0x55203a726f727245,%rax
  402a81:	3a 20 55 
  402a84:	48 ba 6e 61 62 6c 65 	movabs $0x6f7420656c62616e,%rdx
  402a8b:	20 74 6f 
  402a8e:	48 89 45 00          	mov    %rax,0x0(%rbp)
  402a92:	48 89 55 08          	mov    %rdx,0x8(%rbp)
  402a96:	48 b8 20 63 6f 6e 6e 	movabs $0x7463656e6e6f6320,%rax
  402a9d:	65 63 74 
  402aa0:	48 ba 20 74 6f 20 73 	movabs $0x76726573206f7420,%rdx
  402aa7:	65 72 76 
  402aaa:	48 89 45 10          	mov    %rax,0x10(%rbp)
  402aae:	48 89 55 18          	mov    %rdx,0x18(%rbp)
  402ab2:	66 c7 45 20 65 72    	movw   $0x7265,0x20(%rbp)
  402ab8:	c6 45 22 00          	movb   $0x0,0x22(%rbp)
  402abc:	89 df                	mov    %ebx,%edi
  402abe:	e8 ad e1 ff ff       	callq  400c70 <close@plt>
  402ac3:	b8 ff ff ff ff       	mov    $0xffffffff,%eax
  402ac8:	e9 f2 fe ff ff       	jmpq   4029bf <init_driver+0xce>

0000000000402acd <driver_post>:
  402acd:	53                   	push   %rbx
  402ace:	4c 89 cb             	mov    %r9,%rbx
  402ad1:	45 85 c0             	test   %r8d,%r8d
  402ad4:	75 18                	jne    402aee <driver_post+0x21>
  402ad6:	48 85 ff             	test   %rdi,%rdi
  402ad9:	74 05                	je     402ae0 <driver_post+0x13>
  402adb:	80 3f 00             	cmpb   $0x0,(%rdi)
  402ade:	75 30                	jne    402b10 <driver_post+0x43>
  402ae0:	66 c7 03 4f 4b       	movw   $0x4b4f,(%rbx)
  402ae5:	c6 43 02 00          	movb   $0x0,0x2(%rbx)
  402ae9:	44 89 c0             	mov    %r8d,%eax
  402aec:	5b                   	pop    %rbx
  402aed:	c3                   	retq   
  402aee:	48 89 ce             	mov    %rcx,%rsi
  402af1:	bf d5 33 40 00       	mov    $0x4033d5,%edi
  402af6:	b8 00 00 00 00       	mov    $0x0,%eax
  402afb:	e8 40 e1 ff ff       	callq  400c40 <printf@plt>
  402b00:	66 c7 03 4f 4b       	movw   $0x4b4f,(%rbx)
  402b05:	c6 43 02 00          	movb   $0x0,0x2(%rbx)
  402b09:	b8 00 00 00 00       	mov    $0x0,%eax
  402b0e:	eb dc                	jmp    402aec <driver_post+0x1f>
  402b10:	48 83 ec 08          	sub    $0x8,%rsp
  402b14:	41 51                	push   %r9
  402b16:	49 89 c9             	mov    %rcx,%r9
  402b19:	49 89 d0             	mov    %rdx,%r8
  402b1c:	48 89 f9             	mov    %rdi,%rcx
  402b1f:	48 89 f2             	mov    %rsi,%rdx
  402b22:	be 9a 3c 00 00       	mov    $0x3c9a,%esi
  402b27:	bf 19 2f 40 00       	mov    $0x402f19,%edi
  402b2c:	e8 36 f6 ff ff       	callq  402167 <submitr>
  402b31:	48 83 c4 10          	add    $0x10,%rsp
  402b35:	eb b5                	jmp    402aec <driver_post+0x1f>

0000000000402b37 <check>:
  402b37:	89 f8                	mov    %edi,%eax
  402b39:	c1 e8 1c             	shr    $0x1c,%eax
  402b3c:	74 1d                	je     402b5b <check+0x24>
  402b3e:	b9 00 00 00 00       	mov    $0x0,%ecx
  402b43:	83 f9 1f             	cmp    $0x1f,%ecx
  402b46:	7f 0d                	jg     402b55 <check+0x1e>
  402b48:	89 f8                	mov    %edi,%eax
  402b4a:	d3 e8                	shr    %cl,%eax
  402b4c:	3c 0a                	cmp    $0xa,%al
  402b4e:	74 11                	je     402b61 <check+0x2a>
  402b50:	83 c1 08             	add    $0x8,%ecx
  402b53:	eb ee                	jmp    402b43 <check+0xc>
  402b55:	b8 01 00 00 00       	mov    $0x1,%eax
  402b5a:	c3                   	retq   
  402b5b:	b8 00 00 00 00       	mov    $0x0,%eax
  402b60:	c3                   	retq   
  402b61:	b8 00 00 00 00       	mov    $0x0,%eax
  402b66:	c3                   	retq   

0000000000402b67 <gencookie>:
  402b67:	53                   	push   %rbx
  402b68:	83 c7 01             	add    $0x1,%edi
  402b6b:	e8 70 e0 ff ff       	callq  400be0 <srandom@plt>
  402b70:	e8 8b e1 ff ff       	callq  400d00 <random@plt>
  402b75:	89 c3                	mov    %eax,%ebx
  402b77:	89 c7                	mov    %eax,%edi
  402b79:	e8 b9 ff ff ff       	callq  402b37 <check>
  402b7e:	85 c0                	test   %eax,%eax
  402b80:	74 ee                	je     402b70 <gencookie+0x9>
  402b82:	89 d8                	mov    %ebx,%eax
  402b84:	5b                   	pop    %rbx
  402b85:	c3                   	retq   
  402b86:	66 2e 0f 1f 84 00 00 	nopw   %cs:0x0(%rax,%rax,1)
  402b8d:	00 00 00 

0000000000402b90 <__libc_csu_fini>:
  402b90:	f3 c3                	repz retq 
  402b92:	66 66 66 66 66 2e 0f 	data16 data16 data16 data16 nopw %cs:0x0(%rax,%rax,1)
  402b99:	1f 84 00 00 00 00 00 

0000000000402ba0 <__libc_csu_init>:
  402ba0:	48 89 6c 24 d8       	mov    %rbp,-0x28(%rsp)
  402ba5:	4c 89 64 24 e0       	mov    %r12,-0x20(%rsp)
  402baa:	48 8d 2d 6f 22 20 00 	lea    0x20226f(%rip),%rbp        # 604e20 <__init_array_end>
  402bb1:	4c 8d 25 60 22 20 00 	lea    0x202260(%rip),%r12        # 604e18 <__frame_dummy_init_array_entry>
  402bb8:	4c 89 6c 24 e8       	mov    %r13,-0x18(%rsp)
  402bbd:	4c 89 74 24 f0       	mov    %r14,-0x10(%rsp)
  402bc2:	4c 89 7c 24 f8       	mov    %r15,-0x8(%rsp)
  402bc7:	48 89 5c 24 d0       	mov    %rbx,-0x30(%rsp)
  402bcc:	48 83 ec 38          	sub    $0x38,%rsp
  402bd0:	4c 29 e5             	sub    %r12,%rbp
  402bd3:	41 89 fd             	mov    %edi,%r13d
  402bd6:	49 89 f6             	mov    %rsi,%r14
  402bd9:	48 c1 fd 03          	sar    $0x3,%rbp
  402bdd:	49 89 d7             	mov    %rdx,%r15
  402be0:	e8 b3 df ff ff       	callq  400b98 <_init>
  402be5:	48 85 ed             	test   %rbp,%rbp
  402be8:	74 1c                	je     402c06 <__libc_csu_init+0x66>
  402bea:	31 db                	xor    %ebx,%ebx
  402bec:	0f 1f 40 00          	nopl   0x0(%rax)
  402bf0:	4c 89 fa             	mov    %r15,%rdx
  402bf3:	4c 89 f6             	mov    %r14,%rsi
  402bf6:	44 89 ef             	mov    %r13d,%edi
  402bf9:	41 ff 14 dc          	callq  *(%r12,%rbx,8)
  402bfd:	48 83 c3 01          	add    $0x1,%rbx
  402c01:	48 39 eb             	cmp    %rbp,%rbx
  402c04:	72 ea                	jb     402bf0 <__libc_csu_init+0x50>
  402c06:	48 8b 5c 24 08       	mov    0x8(%rsp),%rbx
  402c0b:	48 8b 6c 24 10       	mov    0x10(%rsp),%rbp
  402c10:	4c 8b 64 24 18       	mov    0x18(%rsp),%r12
  402c15:	4c 8b 6c 24 20       	mov    0x20(%rsp),%r13
  402c1a:	4c 8b 74 24 28       	mov    0x28(%rsp),%r14
  402c1f:	4c 8b 7c 24 30       	mov    0x30(%rsp),%r15
  402c24:	48 83 c4 38          	add    $0x38,%rsp
  402c28:	c3                   	retq   
  402c29:	0f 1f 00             	nopl   (%rax)

Disassembly of section .fini:

0000000000402c2c <_fini>:
  402c2c:	48 83 ec 08          	sub    $0x8,%rsp
  402c30:	48 83 c4 08          	add    $0x8,%rsp
  402c34:	c3                   	retq   
